
.//main.elf:     file format elf32-sparc


Disassembly of section .text:

00000000 <_start>:
       0:	21 00 00 04 	sethi  %hi(0x1000), %l0
       4:	a0 14 20 e0 	or  %l0, 0xe0, %l0	! 10e0 <CORTOS_QUEUES_BASE+0x820>
       8:	81 88 00 10 	mov  %l0, %psr
       c:	a3 47 40 00 	rd  %asr29, %l1
      10:	a1 80 20 01 	mov  1, %asr16
      14:	a3 80 20 02 	mov  2, %asr17
      18:	a5 80 20 03 	mov  3, %asr18
      1c:	a7 80 20 04 	mov  4, %asr19

00000020 <WIMSET>:
      20:	a0 10 20 02 	mov  2, %l0
      24:	81 94 20 00 	mov  %l0, %wim
      28:	21 00 00 3c 	sethi  %hi(0xf000), %l0
      2c:	a0 14 20 00 	mov  %l0, %l0	! f000 <trap_table_base>
      30:	81 9c 20 00 	mov  %l0, %tbr
      34:	40 00 22 23 	call  88c0 <CORTOS_INIT_TO_ZERO_END>
      38:	01 00 00 00 	nop 
      3c:	01 00 00 00 	nop 

00000040 <CORTOS_INIT_TO_ZERO_START>:
	...

00000140 <CORTOS_INT_ARRAY_BASE>:
	...

00000540 <CORTOS_RES_LOCK_VARS_BASE>:
	...

000005c0 <CORTOS_LOCK_VARS_BASE>:
	...

00000640 <CORTOS_QUEUE_LOCK_VARS_BASE>:
	...

000006c0 <CORTOS_QUEUE_HEADERS_BASE>:
	...

000008c0 <CORTOS_QUEUES_BASE>:
	...

000088c0 <CORTOS_INIT_TO_ZERO_END>:
    88c0:	25 14 14 80 	sethi  %hi(0x50520000), %l2
    88c4:	80 a4 40 12 	cmp  %l1, %l2
    88c8:	12 80 00 0b 	bne  88f4 <CORTOS_SETUP_THREADS>
    88cc:	01 00 00 00 	nop 
    88d0:	21 00 00 00 	sethi  %hi(0), %l0
    88d4:	a0 14 20 40 	or  %l0, 0x40, %l0	! 40 <CORTOS_INIT_TO_ZERO_START>
    88d8:	25 00 00 22 	sethi  %hi(0x8800), %l2
    88dc:	a4 14 a0 c0 	or  %l2, 0xc0, %l2	! 88c0 <CORTOS_INIT_TO_ZERO_END>
    88e0:	a4 24 a0 04 	sub  %l2, 4, %l2

000088e4 <zero_init_cortos_allocate_area>:
    88e4:	c0 24 00 00 	clr  [ %l0 ]
    88e8:	80 a4 00 12 	cmp  %l0, %l2
    88ec:	12 bf ff fe 	bne  88e4 <zero_init_cortos_allocate_area>
    88f0:	a0 04 20 04 	add  %l0, 4, %l0

000088f4 <CORTOS_SETUP_THREADS>:
    88f4:	25 14 14 80 	sethi  %hi(0x50520000), %l2
    88f8:	80 a4 40 12 	cmp  %l1, %l2
    88fc:	12 80 00 28 	bne  899c <CORTOS_HALT_ERROR>
    8900:	01 00 00 00 	nop 
    8904:	1d 00 0c 08 	sethi  %hi(0x302000), %sp
    8908:	bc 10 00 00 	mov  %g0, %fp
    890c:	40 00 1d bd 	call  10000 <page_table_setup>
    8910:	01 00 00 00 	nop 
    8914:	2d 00 00 22 	sethi  %hi(0x8800), %l6
    8918:	ac 15 a1 b0 	or  %l6, 0x1b0, %l6	! 89b0 <PT_FLAG>
    891c:	ae 10 20 01 	mov  1, %l7
    8920:	ee 25 80 00 	st  %l7, [ %l6 ]
    8924:	40 00 05 2c 	call  9dd4 <__cortos_enable_serial>
    8928:	01 00 00 00 	nop 
    892c:	10 80 00 02 	b  8934 <AFTER_PTABLE_SETUP>
    8930:	01 00 00 00 	nop 

00008934 <AFTER_PTABLE_SETUP>:
    8934:	2d 00 00 22 	sethi  %hi(0x8800), %l6
    8938:	ac 15 a1 b0 	or  %l6, 0x1b0, %l6	! 89b0 <PT_FLAG>
    893c:	ee 05 80 00 	ld  [ %l6 ], %l7
    8940:	b0 10 20 01 	mov  1, %i0
    8944:	80 a6 00 17 	cmp  %i0, %l7
    8948:	12 bf ff fb 	bne  8934 <AFTER_PTABLE_SETUP>
    894c:	01 00 00 00 	nop 
    8950:	40 00 1d b4 	call  10020 <set_context_table_pointer>
    8954:	01 00 00 00 	nop 
    8958:	90 10 20 01 	mov  1, %o0	! 1 <_start+0x1>
    895c:	d0 a0 00 80 	sta  %o0, [ %g0 ] #ASI_N
    8960:	10 80 00 07 	b  897c <CORTOS_START_THREADS>
    8964:	01 00 00 00 	nop 

00008968 <WAIT_UNTIL_MMU_IS_ENABLED>:
    8968:	90 10 20 01 	mov  1, %o0	! 1 <_start+0x1>
    896c:	d0 80 00 80 	lda  [ %g0 ] #ASI_N, %o0
    8970:	90 8a 20 01 	andcc  %o0, 1, %o0
    8974:	02 bf ff fd 	be  8968 <WAIT_UNTIL_MMU_IS_ENABLED>
    8978:	01 00 00 00 	nop 

0000897c <CORTOS_START_THREADS>:
    897c:	25 14 14 80 	sethi  %hi(0x50520000), %l2
    8980:	80 a4 40 12 	cmp  %l1, %l2
    8984:	12 80 00 06 	bne  899c <CORTOS_HALT_ERROR>
    8988:	01 00 00 00 	nop 
    898c:	40 00 13 9e 	call  d804 <main>
    8990:	01 00 00 00 	nop 

00008994 <START_THREAD_0_0_LOOP>:
    8994:	10 80 00 04 	b  89a4 <CORTOS_HALT_OKAY>
    8998:	01 00 00 00 	nop 

0000899c <CORTOS_HALT_ERROR>:
    899c:	a1 80 20 01 	mov  1, %asr16
    89a0:	91 d0 20 00 	ta  0

000089a4 <CORTOS_HALT_OKAY>:
    89a4:	a1 80 20 00 	mov  %g0, %asr16
    89a8:	91 d0 20 00 	ta  0
    89ac:	01 00 00 00 	nop 

000089b0 <PT_FLAG>:
    89b0:	00 00 00 00 	unimp  0
    89b4:	01 00 00 00 	nop 

000089b8 <cortos_exit>:
    89b8:	9d e3 bf a0 	save  %sp, -96, %sp
    89bc:	a1 80 00 18 	mov  %i0, %asr16
    89c0:	91 d0 20 00 	ta  0

000089c4 <__cortos_lock_acquire_buzy>:
    89c4:	9d e3 bf a0 	save  %sp, -96, %sp
    89c8:	a0 10 25 38 	mov  0x538, %l0
    89cc:	b1 2e 20 02 	sll  %i0, 2, %i0

000089d0 <try_to_lock>:
    89d0:	e2 6c 00 18 	ldstub  [ %l0 + %i0 ], %l1
    89d4:	80 94 40 00 	tst  %l1
    89d8:	02 80 00 07 	be  89f4 <out>
    89dc:	01 00 00 00 	nop 

000089e0 <wait_for_lock>:
    89e0:	e2 0c 00 18 	ldub  [ %l0 + %i0 ], %l1
    89e4:	80 94 40 00 	tst  %l1
    89e8:	12 bf ff fe 	bne  89e0 <wait_for_lock>
    89ec:	01 00 00 00 	nop 
    89f0:	30 bf ff f8 	b,a   89d0 <try_to_lock>

000089f4 <out>:
    89f4:	b0 10 20 01 	mov  1, %i0	! 1 <_start+0x1>
    89f8:	81 e8 00 00 	restore 
    89fc:	81 c3 e0 08 	retl 
    8a00:	01 00 00 00 	nop 

00008a04 <__cortos_lock_acquire>:
    8a04:	9d e3 bf a0 	save  %sp, -96, %sp
    8a08:	a0 10 25 38 	mov  0x538, %l0
    8a0c:	b1 2e 20 02 	sll  %i0, 2, %i0

00008a10 <try_to_lock_once>:
    8a10:	e2 6c 00 18 	ldstub  [ %l0 + %i0 ], %l1
    8a14:	80 94 40 00 	tst  %l1
    8a18:	02 80 00 03 	be  8a24 <lock_acquired>
    8a1c:	01 00 00 00 	nop 
    8a20:	30 80 00 03 	b,a   8a2c <lock_not_acquired>

00008a24 <lock_acquired>:
    8a24:	10 80 00 03 	b  8a30 <exit_cortos_lock_acquire>
    8a28:	b0 10 20 01 	mov  1, %i0

00008a2c <lock_not_acquired>:
    8a2c:	b0 10 00 00 	mov  %g0, %i0

00008a30 <exit_cortos_lock_acquire>:
    8a30:	81 e8 00 00 	restore 
    8a34:	81 c3 e0 08 	retl 
    8a38:	01 00 00 00 	nop 

00008a3c <__cortos_lock_release>:
    8a3c:	9d e3 bf a0 	save  %sp, -96, %sp
    8a40:	a0 10 25 38 	mov  0x538, %l0
    8a44:	b1 2e 20 02 	sll  %i0, 2, %i0
    8a48:	81 43 c0 00 	stbar 
    8a4c:	c0 2c 00 18 	clrb  [ %l0 + %i0 ]
    8a50:	81 e8 00 00 	restore 
    8a54:	81 c3 e0 08 	retl 
    8a58:	01 00 00 00 	nop 

00008a5c <__ajit_clear_all_gp_registers__>:
    8a5c:	9d e3 bf 98 	save  %sp, -104, %sp
    8a60:	82 10 00 00 	mov  %g0, %g1
    8a64:	84 10 00 00 	mov  %g0, %g2
    8a68:	86 10 00 00 	mov  %g0, %g3
    8a6c:	88 10 00 00 	mov  %g0, %g4
    8a70:	8a 10 00 00 	mov  %g0, %g5
    8a74:	8c 10 00 00 	mov  %g0, %g6
    8a78:	8e 10 00 00 	mov  %g0, %g7
    8a7c:	b0 10 00 00 	mov  %g0, %i0
    8a80:	b2 10 00 00 	mov  %g0, %i1
    8a84:	b4 10 00 00 	mov  %g0, %i2
    8a88:	b6 10 00 00 	mov  %g0, %i3
    8a8c:	b8 10 00 00 	mov  %g0, %i4
    8a90:	ba 10 00 00 	mov  %g0, %i5
    8a94:	bc 10 00 00 	mov  %g0, %fp
    8a98:	be 10 00 00 	mov  %g0, %i7
    8a9c:	a0 10 00 00 	mov  %g0, %l0
    8aa0:	a2 10 00 00 	mov  %g0, %l1
    8aa4:	a4 10 00 00 	mov  %g0, %l2
    8aa8:	a6 10 00 00 	mov  %g0, %l3
    8aac:	a8 10 00 00 	mov  %g0, %l4
    8ab0:	aa 10 00 00 	mov  %g0, %l5
    8ab4:	ac 10 00 00 	mov  %g0, %l6
    8ab8:	ae 10 00 00 	mov  %g0, %l7
    8abc:	90 10 00 00 	mov  %g0, %o0
    8ac0:	92 10 00 00 	mov  %g0, %o1
    8ac4:	94 10 00 00 	mov  %g0, %o2
    8ac8:	96 10 00 00 	mov  %g0, %o3
    8acc:	98 10 00 00 	mov  %g0, %o4
    8ad0:	9a 10 00 00 	mov  %g0, %o5
    8ad4:	9c 10 00 00 	mov  %g0, %sp
    8ad8:	9e 10 00 00 	mov  %g0, %o7
    8adc:	c0 27 bf fc 	clr  [ %fp + -4 ]
    8ae0:	c0 27 bf fc 	clr  [ %fp + -4 ]
    8ae4:	10 80 00 16 	b  8b3c <__ajit_clear_all_gp_registers__+0xe0>
    8ae8:	01 00 00 00 	nop 
    8aec:	81 e0 00 00 	save 
    8af0:	a0 10 00 00 	mov  %g0, %l0
    8af4:	a2 10 00 00 	mov  %g0, %l1
    8af8:	a4 10 00 00 	mov  %g0, %l2
    8afc:	a6 10 00 00 	mov  %g0, %l3
    8b00:	a8 10 00 00 	mov  %g0, %l4
    8b04:	aa 10 00 00 	mov  %g0, %l5
    8b08:	ac 10 00 00 	mov  %g0, %l6
    8b0c:	ae 10 00 00 	mov  %g0, %l7
    8b10:	90 10 00 00 	mov  %g0, %o0
    8b14:	92 10 00 00 	mov  %g0, %o1
    8b18:	94 10 00 00 	mov  %g0, %o2
    8b1c:	96 10 00 00 	mov  %g0, %o3
    8b20:	98 10 00 00 	mov  %g0, %o4
    8b24:	9a 10 00 00 	mov  %g0, %o5
    8b28:	9c 10 00 00 	mov  %g0, %sp
    8b2c:	9e 10 00 00 	mov  %g0, %o7
    8b30:	c2 07 bf fc 	ld  [ %fp + -4 ], %g1
    8b34:	82 00 60 01 	inc  %g1
    8b38:	c2 27 bf fc 	st  %g1, [ %fp + -4 ]
    8b3c:	c2 07 bf fc 	ld  [ %fp + -4 ], %g1
    8b40:	80 a0 60 06 	cmp  %g1, 6
    8b44:	04 bf ff ea 	ble  8aec <__ajit_clear_all_gp_registers__+0x90>
    8b48:	01 00 00 00 	nop 
    8b4c:	c0 27 bf fc 	clr  [ %fp + -4 ]
    8b50:	10 80 00 06 	b  8b68 <__ajit_clear_all_gp_registers__+0x10c>
    8b54:	01 00 00 00 	nop 
    8b58:	81 e8 00 00 	restore 
    8b5c:	c2 07 bf fc 	ld  [ %fp + -4 ], %g1
    8b60:	82 00 60 01 	inc  %g1
    8b64:	c2 27 bf fc 	st  %g1, [ %fp + -4 ]
    8b68:	c2 07 bf fc 	ld  [ %fp + -4 ], %g1
    8b6c:	80 a0 60 06 	cmp  %g1, 6
    8b70:	04 bf ff fa 	ble  8b58 <__ajit_clear_all_gp_registers__+0xfc>
    8b74:	01 00 00 00 	nop 
    8b78:	81 e8 00 00 	restore 
    8b7c:	81 c3 e0 08 	retl 
    8b80:	01 00 00 00 	nop 

00008b84 <__ajit_read_core_thread_id_word__>:
    8b84:	9d e3 bf 98 	save  %sp, -104, %sp
    8b88:	bb 47 40 00 	rd  %asr29, %i5
    8b8c:	fa 27 bf fc 	st  %i5, [ %fp + -4 ]
    8b90:	c2 07 bf fc 	ld  [ %fp + -4 ], %g1
    8b94:	b0 10 00 01 	mov  %g1, %i0
    8b98:	81 e8 00 00 	restore 
    8b9c:	81 c3 e0 08 	retl 
    8ba0:	01 00 00 00 	nop 

00008ba4 <ajit_get_core_and_thread_id>:
    8ba4:	9d e3 bf 98 	save  %sp, -104, %sp
    8ba8:	f0 27 a0 44 	st  %i0, [ %fp + 0x44 ]
    8bac:	f2 27 a0 48 	st  %i1, [ %fp + 0x48 ]
    8bb0:	7f ff ff f5 	call  8b84 <__ajit_read_core_thread_id_word__>
    8bb4:	01 00 00 00 	nop 
    8bb8:	d0 27 bf fc 	st  %o0, [ %fp + -4 ]
    8bbc:	c2 07 bf fc 	ld  [ %fp + -4 ], %g1
    8bc0:	83 30 60 08 	srl  %g1, 8, %g1
    8bc4:	84 10 00 01 	mov  %g1, %g2
    8bc8:	c2 07 a0 44 	ld  [ %fp + 0x44 ], %g1
    8bcc:	c4 28 40 00 	stb  %g2, [ %g1 ]
    8bd0:	c2 07 bf fc 	ld  [ %fp + -4 ], %g1
    8bd4:	84 10 00 01 	mov  %g1, %g2
    8bd8:	c2 07 a0 48 	ld  [ %fp + 0x48 ], %g1
    8bdc:	c4 28 40 00 	stb  %g2, [ %g1 ]
    8be0:	81 e8 00 00 	restore 
    8be4:	81 c3 e0 08 	retl 
    8be8:	01 00 00 00 	nop 

00008bec <__ajit_read_cycle_count_register_high__>:
    8bec:	9d e3 bf 98 	save  %sp, -104, %sp
    8bf0:	bb 47 80 00 	rd  %asr30, %i5
    8bf4:	fa 27 bf fc 	st  %i5, [ %fp + -4 ]
    8bf8:	c2 07 bf fc 	ld  [ %fp + -4 ], %g1
    8bfc:	b0 10 00 01 	mov  %g1, %i0
    8c00:	81 e8 00 00 	restore 
    8c04:	81 c3 e0 08 	retl 
    8c08:	01 00 00 00 	nop 

00008c0c <__ajit_read_cycle_count_register_low__>:
    8c0c:	9d e3 bf 98 	save  %sp, -104, %sp
    8c10:	bb 47 c0 00 	rd  %asr31, %i5
    8c14:	fa 27 bf fc 	st  %i5, [ %fp + -4 ]
    8c18:	c2 07 bf fc 	ld  [ %fp + -4 ], %g1
    8c1c:	b0 10 00 01 	mov  %g1, %i0
    8c20:	81 e8 00 00 	restore 
    8c24:	81 c3 e0 08 	retl 
    8c28:	01 00 00 00 	nop 

00008c2c <__ajit_get_clock_time>:
    8c2c:	9d e3 bf 90 	save  %sp, -112, %sp
    8c30:	7f ff ff f7 	call  8c0c <__ajit_read_cycle_count_register_low__>
    8c34:	01 00 00 00 	nop 
    8c38:	d0 27 bf fc 	st  %o0, [ %fp + -4 ]
    8c3c:	7f ff ff ec 	call  8bec <__ajit_read_cycle_count_register_high__>
    8c40:	01 00 00 00 	nop 
    8c44:	d0 27 bf f8 	st  %o0, [ %fp + -8 ]
    8c48:	c2 07 bf f8 	ld  [ %fp + -8 ], %g1
    8c4c:	84 10 20 00 	clr  %g2
    8c50:	86 10 00 01 	mov  %g1, %g3
    8c54:	c4 3f bf f0 	std  %g2, [ %fp + -16 ]
    8c58:	c2 07 bf f4 	ld  [ %fp + -12 ], %g1
    8c5c:	83 28 60 00 	sll  %g1, 0, %g1
    8c60:	c2 27 bf f0 	st  %g1, [ %fp + -16 ]
    8c64:	c0 27 bf f4 	clr  [ %fp + -12 ]
    8c68:	c2 07 bf fc 	ld  [ %fp + -4 ], %g1
    8c6c:	84 10 20 00 	clr  %g2
    8c70:	86 10 00 01 	mov  %g1, %g3
    8c74:	f8 1f bf f0 	ldd  [ %fp + -16 ], %i4
    8c78:	84 17 00 02 	or  %i4, %g2, %g2
    8c7c:	86 17 40 03 	or  %i5, %g3, %g3
    8c80:	c4 3f bf f0 	std  %g2, [ %fp + -16 ]
    8c84:	c4 1f bf f0 	ldd  [ %fp + -16 ], %g2
    8c88:	b0 10 00 02 	mov  %g2, %i0
    8c8c:	b2 10 00 03 	mov  %g3, %i1
    8c90:	81 e8 00 00 	restore 
    8c94:	81 c3 e0 08 	retl 
    8c98:	01 00 00 00 	nop 

00008c9c <__ajit_sleep__>:
    8c9c:	9d e3 bf 90 	save  %sp, -112, %sp
    8ca0:	f0 27 a0 44 	st  %i0, [ %fp + 0x44 ]
    8ca4:	7f ff ff e2 	call  8c2c <__ajit_get_clock_time>
    8ca8:	01 00 00 00 	nop 
    8cac:	d0 3f bf f8 	std  %o0, [ %fp + -8 ]
    8cb0:	c2 07 a0 44 	ld  [ %fp + 0x44 ], %g1
    8cb4:	b4 10 20 00 	clr  %i2
    8cb8:	b6 10 00 01 	mov  %g1, %i3
    8cbc:	f8 1f bf f8 	ldd  [ %fp + -8 ], %i4
    8cc0:	86 86 c0 1d 	addcc  %i3, %i5, %g3
    8cc4:	84 46 80 1c 	addx  %i2, %i4, %g2
    8cc8:	c4 3f bf f0 	std  %g2, [ %fp + -16 ]
    8ccc:	10 80 00 05 	b  8ce0 <__ajit_sleep__+0x44>
    8cd0:	01 00 00 00 	nop 
    8cd4:	7f ff ff d6 	call  8c2c <__ajit_get_clock_time>
    8cd8:	01 00 00 00 	nop 
    8cdc:	d0 3f bf f8 	std  %o0, [ %fp + -8 ]
    8ce0:	c4 07 bf f0 	ld  [ %fp + -16 ], %g2
    8ce4:	c2 07 bf f8 	ld  [ %fp + -8 ], %g1
    8ce8:	80 a0 80 01 	cmp  %g2, %g1
    8cec:	18 bf ff fa 	bgu  8cd4 <__ajit_sleep__+0x38>
    8cf0:	01 00 00 00 	nop 
    8cf4:	c4 07 bf f0 	ld  [ %fp + -16 ], %g2
    8cf8:	c2 07 bf f8 	ld  [ %fp + -8 ], %g1
    8cfc:	80 a0 80 01 	cmp  %g2, %g1
    8d00:	12 80 00 07 	bne  8d1c <__ajit_sleep__+0x80>
    8d04:	01 00 00 00 	nop 
    8d08:	c4 07 bf f4 	ld  [ %fp + -12 ], %g2
    8d0c:	c2 07 bf fc 	ld  [ %fp + -4 ], %g1
    8d10:	80 a0 80 01 	cmp  %g2, %g1
    8d14:	18 bf ff f0 	bgu  8cd4 <__ajit_sleep__+0x38>
    8d18:	01 00 00 00 	nop 
    8d1c:	01 00 00 00 	nop 
    8d20:	81 e8 00 00 	restore 
    8d24:	81 c3 e0 08 	retl 
    8d28:	01 00 00 00 	nop 

00008d2c <__ajit_set_mmu_default_cacheable_bit__>:
    8d2c:	9d e3 bf 98 	save  %sp, -104, %sp
    8d30:	82 10 00 18 	mov  %i0, %g1
    8d34:	c2 2f a0 44 	stb  %g1, [ %fp + 0x44 ]
    8d38:	c2 0f a0 44 	ldub  [ %fp + 0x44 ], %g1
    8d3c:	82 08 60 ff 	and  %g1, 0xff, %g1
    8d40:	80 a0 60 00 	cmp  %g1, 0
    8d44:	02 80 00 05 	be  8d58 <__ajit_set_mmu_default_cacheable_bit__+0x2c>
    8d48:	01 00 00 00 	nop 
    8d4c:	82 10 21 00 	mov  0x100, %g1	! 100 <CORTOS_INIT_TO_ZERO_START+0xc0>
    8d50:	10 80 00 03 	b  8d5c <__ajit_set_mmu_default_cacheable_bit__+0x30>
    8d54:	01 00 00 00 	nop 
    8d58:	82 10 20 00 	clr  %g1	! 0 <_start>
    8d5c:	c2 27 bf fc 	st  %g1, [ %fp + -4 ]
    8d60:	c0 27 bf f8 	clr  [ %fp + -8 ]
    8d64:	c2 07 bf fc 	ld  [ %fp + -4 ], %g1
    8d68:	c4 07 bf f8 	ld  [ %fp + -8 ], %g2
    8d6c:	c2 a0 80 80 	sta  %g1, [ %g2 ] #ASI_N
    8d70:	81 e8 00 00 	restore 
    8d74:	81 c3 e0 08 	retl 
    8d78:	01 00 00 00 	nop 

00008d7c <__ajit_store_word_mmu_reg__>:
    8d7c:	9d e3 bf a0 	save  %sp, -96, %sp
    8d80:	f0 27 a0 44 	st  %i0, [ %fp + 0x44 ]
    8d84:	f2 27 a0 48 	st  %i1, [ %fp + 0x48 ]
    8d88:	c2 07 a0 44 	ld  [ %fp + 0x44 ], %g1
    8d8c:	c4 07 a0 48 	ld  [ %fp + 0x48 ], %g2
    8d90:	c2 a0 80 80 	sta  %g1, [ %g2 ] #ASI_N
    8d94:	81 e8 00 00 	restore 
    8d98:	81 c3 e0 08 	retl 
    8d9c:	01 00 00 00 	nop 

00008da0 <__ajit_store_word_mmu_bypass__>:
    8da0:	9d e3 bf a0 	save  %sp, -96, %sp
    8da4:	f0 27 a0 44 	st  %i0, [ %fp + 0x44 ]
    8da8:	f2 27 a0 48 	st  %i1, [ %fp + 0x48 ]
    8dac:	c2 07 a0 44 	ld  [ %fp + 0x44 ], %g1
    8db0:	c4 07 a0 48 	ld  [ %fp + 0x48 ], %g2
    8db4:	c2 a0 84 00 	sta  %g1, [ %g2 ] #ASI_SCRATCHPAD
    8db8:	81 e8 00 00 	restore 
    8dbc:	81 c3 e0 08 	retl 
    8dc0:	01 00 00 00 	nop 

00008dc4 <__ajit_load_word_mmu_reg__>:
    8dc4:	9d e3 bf 98 	save  %sp, -104, %sp
    8dc8:	f0 27 a0 44 	st  %i0, [ %fp + 0x44 ]
    8dcc:	c2 07 a0 44 	ld  [ %fp + 0x44 ], %g1
    8dd0:	fa 80 40 80 	lda  [ %g1 ] #ASI_N, %i5
    8dd4:	fa 27 bf fc 	st  %i5, [ %fp + -4 ]
    8dd8:	c2 07 bf fc 	ld  [ %fp + -4 ], %g1
    8ddc:	b0 10 00 01 	mov  %g1, %i0
    8de0:	81 e8 00 00 	restore 
    8de4:	81 c3 e0 08 	retl 
    8de8:	01 00 00 00 	nop 

00008dec <__ajit_load_word_mmu_bypass__>:
    8dec:	9d e3 bf 98 	save  %sp, -104, %sp
    8df0:	f0 27 a0 44 	st  %i0, [ %fp + 0x44 ]
    8df4:	c2 07 a0 44 	ld  [ %fp + 0x44 ], %g1
    8df8:	fa 80 44 00 	lda  [ %g1 ] #ASI_SCRATCHPAD, %i5
    8dfc:	fa 27 bf fc 	st  %i5, [ %fp + -4 ]
    8e00:	c2 07 bf fc 	ld  [ %fp + -4 ], %g1
    8e04:	b0 10 00 01 	mov  %g1, %i0
    8e08:	81 e8 00 00 	restore 
    8e0c:	81 c3 e0 08 	retl 
    8e10:	01 00 00 00 	nop 

00008e14 <__ajit_flush_icache__>:
    8e14:	9d e3 bf a0 	save  %sp, -96, %sp
    8e18:	81 d8 20 00 	flush  %g0
    8e1c:	81 e8 00 00 	restore 
    8e20:	81 c3 e0 08 	retl 
    8e24:	01 00 00 00 	nop 

00008e28 <__ajit_flush_dcache__>:
    8e28:	9d e3 bf a0 	save  %sp, -96, %sp
    8e2c:	c0 a0 02 60 	sta  %g0, [ %g0 ] (19)
    8e30:	81 e8 00 00 	restore 
    8e34:	81 c3 e0 08 	retl 
    8e38:	01 00 00 00 	nop 

00008e3c <__ajit_write_timer_control_register__>:
    8e3c:	9d e3 bf 98 	save  %sp, -104, %sp
    8e40:	f0 27 a0 44 	st  %i0, [ %fp + 0x44 ]
    8e44:	03 3f ff cc 	sethi  %hi(0xffff3000), %g1
    8e48:	82 10 61 00 	or  %g1, 0x100, %g1	! ffff3100 <syncLockVars+0xfffe26c8>
    8e4c:	c2 27 bf fc 	st  %g1, [ %fp + -4 ]
    8e50:	d0 07 a0 44 	ld  [ %fp + 0x44 ], %o0
    8e54:	d2 07 bf fc 	ld  [ %fp + -4 ], %o1
    8e58:	7f ff ff d2 	call  8da0 <__ajit_store_word_mmu_bypass__>
    8e5c:	01 00 00 00 	nop 
    8e60:	81 e8 00 00 	restore 
    8e64:	81 c3 e0 08 	retl 
    8e68:	01 00 00 00 	nop 

00008e6c <__ajit_read_timer_control_register__>:
    8e6c:	9d e3 bf 98 	save  %sp, -104, %sp
    8e70:	03 3f ff cc 	sethi  %hi(0xffff3000), %g1
    8e74:	90 10 61 00 	or  %g1, 0x100, %o0	! ffff3100 <syncLockVars+0xfffe26c8>
    8e78:	7f ff ff dd 	call  8dec <__ajit_load_word_mmu_bypass__>
    8e7c:	01 00 00 00 	nop 
    8e80:	d0 27 bf fc 	st  %o0, [ %fp + -4 ]
    8e84:	c2 07 bf fc 	ld  [ %fp + -4 ], %g1
    8e88:	b0 10 00 01 	mov  %g1, %i0
    8e8c:	81 e8 00 00 	restore 
    8e90:	81 c3 e0 08 	retl 
    8e94:	01 00 00 00 	nop 

00008e98 <__ajit_write_timer_control_register_via_vmap__>:
    8e98:	9d e3 bf a0 	save  %sp, -96, %sp
    8e9c:	f0 27 a0 44 	st  %i0, [ %fp + 0x44 ]
    8ea0:	03 3f ff cc 	sethi  %hi(0xffff3000), %g1
    8ea4:	82 10 61 00 	or  %g1, 0x100, %g1	! ffff3100 <syncLockVars+0xfffe26c8>
    8ea8:	c4 07 a0 44 	ld  [ %fp + 0x44 ], %g2
    8eac:	c4 20 40 00 	st  %g2, [ %g1 ]
    8eb0:	81 e8 00 00 	restore 
    8eb4:	81 c3 e0 08 	retl 
    8eb8:	01 00 00 00 	nop 

00008ebc <__ajit_read_timer_control_register_via_vmap__>:
    8ebc:	9d e3 bf 98 	save  %sp, -104, %sp
    8ec0:	03 3f ff cc 	sethi  %hi(0xffff3000), %g1
    8ec4:	82 10 61 00 	or  %g1, 0x100, %g1	! ffff3100 <syncLockVars+0xfffe26c8>
    8ec8:	c2 00 40 00 	ld  [ %g1 ], %g1
    8ecc:	c2 27 bf fc 	st  %g1, [ %fp + -4 ]
    8ed0:	c2 07 bf fc 	ld  [ %fp + -4 ], %g1
    8ed4:	b0 10 00 01 	mov  %g1, %i0
    8ed8:	81 e8 00 00 	restore 
    8edc:	81 c3 e0 08 	retl 
    8ee0:	01 00 00 00 	nop 

00008ee4 <__ajit_write_serial_control_register__>:
    8ee4:	9d e3 bf 98 	save  %sp, -104, %sp
    8ee8:	f0 27 a0 44 	st  %i0, [ %fp + 0x44 ]
    8eec:	03 3f ff cc 	sethi  %hi(0xffff3000), %g1
    8ef0:	82 10 62 00 	or  %g1, 0x200, %g1	! ffff3200 <syncLockVars+0xfffe27c8>
    8ef4:	c2 27 bf fc 	st  %g1, [ %fp + -4 ]
    8ef8:	c2 07 a0 44 	ld  [ %fp + 0x44 ], %g1
    8efc:	c4 07 bf fc 	ld  [ %fp + -4 ], %g2
    8f00:	c2 a0 84 00 	sta  %g1, [ %g2 ] #ASI_SCRATCHPAD
    8f04:	81 e8 00 00 	restore 
    8f08:	81 c3 e0 08 	retl 
    8f0c:	01 00 00 00 	nop 

00008f10 <__ajit_serial_configure__>:
    8f10:	9d e3 bf 98 	save  %sp, -104, %sp
    8f14:	86 10 00 18 	mov  %i0, %g3
    8f18:	84 10 00 19 	mov  %i1, %g2
    8f1c:	82 10 00 1a 	mov  %i2, %g1
    8f20:	c6 2f a0 44 	stb  %g3, [ %fp + 0x44 ]
    8f24:	c4 2f a0 48 	stb  %g2, [ %fp + 0x48 ]
    8f28:	c2 2f a0 4c 	stb  %g1, [ %fp + 0x4c ]
    8f2c:	c0 27 bf fc 	clr  [ %fp + -4 ]
    8f30:	03 3f ff cc 	sethi  %hi(0xffff3000), %g1
    8f34:	82 10 62 00 	or  %g1, 0x200, %g1	! ffff3200 <syncLockVars+0xfffe27c8>
    8f38:	fa 80 44 00 	lda  [ %g1 ] #ASI_SCRATCHPAD, %i5
    8f3c:	fa 27 bf fc 	st  %i5, [ %fp + -4 ]
    8f40:	c2 0f a0 44 	ldub  [ %fp + 0x44 ], %g1
    8f44:	82 08 60 ff 	and  %g1, 0xff, %g1
    8f48:	80 a0 60 00 	cmp  %g1, 0
    8f4c:	02 80 00 07 	be  8f68 <__ajit_serial_configure__+0x58>
    8f50:	01 00 00 00 	nop 
    8f54:	c2 07 bf fc 	ld  [ %fp + -4 ], %g1
    8f58:	82 10 60 01 	or  %g1, 1, %g1
    8f5c:	c2 27 bf fc 	st  %g1, [ %fp + -4 ]
    8f60:	10 80 00 05 	b  8f74 <__ajit_serial_configure__+0x64>
    8f64:	01 00 00 00 	nop 
    8f68:	c2 07 bf fc 	ld  [ %fp + -4 ], %g1
    8f6c:	82 08 7f fe 	and  %g1, -2, %g1
    8f70:	c2 27 bf fc 	st  %g1, [ %fp + -4 ]
    8f74:	c2 0f a0 48 	ldub  [ %fp + 0x48 ], %g1
    8f78:	82 08 60 ff 	and  %g1, 0xff, %g1
    8f7c:	80 a0 60 00 	cmp  %g1, 0
    8f80:	02 80 00 07 	be  8f9c <__ajit_serial_configure__+0x8c>
    8f84:	01 00 00 00 	nop 
    8f88:	c2 07 bf fc 	ld  [ %fp + -4 ], %g1
    8f8c:	82 10 60 02 	or  %g1, 2, %g1
    8f90:	c2 27 bf fc 	st  %g1, [ %fp + -4 ]
    8f94:	10 80 00 05 	b  8fa8 <__ajit_serial_configure__+0x98>
    8f98:	01 00 00 00 	nop 
    8f9c:	c2 07 bf fc 	ld  [ %fp + -4 ], %g1
    8fa0:	82 08 7f fd 	and  %g1, -3, %g1
    8fa4:	c2 27 bf fc 	st  %g1, [ %fp + -4 ]
    8fa8:	c2 0f a0 4c 	ldub  [ %fp + 0x4c ], %g1
    8fac:	82 08 60 ff 	and  %g1, 0xff, %g1
    8fb0:	80 a0 60 00 	cmp  %g1, 0
    8fb4:	02 80 00 07 	be  8fd0 <__ajit_serial_configure__+0xc0>
    8fb8:	01 00 00 00 	nop 
    8fbc:	c2 07 bf fc 	ld  [ %fp + -4 ], %g1
    8fc0:	82 10 60 04 	or  %g1, 4, %g1
    8fc4:	c2 27 bf fc 	st  %g1, [ %fp + -4 ]
    8fc8:	10 80 00 05 	b  8fdc <__ajit_serial_configure__+0xcc>
    8fcc:	01 00 00 00 	nop 
    8fd0:	c2 07 bf fc 	ld  [ %fp + -4 ], %g1
    8fd4:	82 08 7f fb 	and  %g1, -5, %g1
    8fd8:	c2 27 bf fc 	st  %g1, [ %fp + -4 ]
    8fdc:	c2 07 bf fc 	ld  [ %fp + -4 ], %g1
    8fe0:	05 3f ff cc 	sethi  %hi(0xffff3000), %g2
    8fe4:	84 10 a2 00 	or  %g2, 0x200, %g2	! ffff3200 <syncLockVars+0xfffe27c8>
    8fe8:	c2 a0 84 00 	sta  %g1, [ %g2 ] #ASI_SCRATCHPAD
    8fec:	81 e8 00 00 	restore 
    8ff0:	81 c3 e0 08 	retl 
    8ff4:	01 00 00 00 	nop 

00008ff8 <__ajit_serial_uart_reset__>:
    8ff8:	9d e3 bf a0 	save  %sp, -96, %sp
    8ffc:	90 10 20 00 	clr  %o0
    9000:	40 00 02 22 	call  9888 <__ajit_serial_uart_reset_inner__>
    9004:	01 00 00 00 	nop 
    9008:	81 e8 00 00 	restore 
    900c:	81 c3 e0 08 	retl 
    9010:	01 00 00 00 	nop 

00009014 <__ajit_serial_set_baudrate__>:
    9014:	9d e3 bf a0 	save  %sp, -96, %sp
    9018:	f0 27 a0 44 	st  %i0, [ %fp + 0x44 ]
    901c:	f2 27 a0 48 	st  %i1, [ %fp + 0x48 ]
    9020:	90 10 20 00 	clr  %o0
    9024:	d2 07 a0 44 	ld  [ %fp + 0x44 ], %o1
    9028:	d4 07 a0 48 	ld  [ %fp + 0x48 ], %o2
    902c:	40 00 00 54 	call  917c <__ajit_serial_set_baudrate_inner__>
    9030:	01 00 00 00 	nop 
    9034:	81 e8 00 00 	restore 
    9038:	81 c3 e0 08 	retl 
    903c:	01 00 00 00 	nop 

00009040 <__ajit_serial_set_baudrate_via_vmap__>:
    9040:	9d e3 bf a0 	save  %sp, -96, %sp
    9044:	f0 27 a0 44 	st  %i0, [ %fp + 0x44 ]
    9048:	f2 27 a0 48 	st  %i1, [ %fp + 0x48 ]
    904c:	90 10 20 01 	mov  1, %o0
    9050:	d2 07 a0 44 	ld  [ %fp + 0x44 ], %o1
    9054:	d4 07 a0 48 	ld  [ %fp + 0x48 ], %o2
    9058:	40 00 00 49 	call  917c <__ajit_serial_set_baudrate_inner__>
    905c:	01 00 00 00 	nop 
    9060:	81 e8 00 00 	restore 
    9064:	81 c3 e0 08 	retl 
    9068:	01 00 00 00 	nop 

0000906c <calculate_baud_control_word_for_uart>:
    906c:	9d e3 bf 88 	save  %sp, -120, %sp
    9070:	f0 27 a0 44 	st  %i0, [ %fp + 0x44 ]
    9074:	f2 27 a0 48 	st  %i1, [ %fp + 0x48 ]
    9078:	c0 27 bf fc 	clr  [ %fp + -4 ]
    907c:	c2 07 a0 44 	ld  [ %fp + 0x44 ], %g1
    9080:	83 28 60 04 	sll  %g1, 4, %g1
    9084:	c2 27 bf f8 	st  %g1, [ %fp + -8 ]
    9088:	c2 07 a0 48 	ld  [ %fp + 0x48 ], %g1
    908c:	c2 27 bf f4 	st  %g1, [ %fp + -12 ]
    9090:	c2 07 bf f8 	ld  [ %fp + -8 ], %g1
    9094:	80 a0 60 00 	cmp  %g1, 0
    9098:	02 80 00 34 	be  9168 <calculate_baud_control_word_for_uart+0xfc>
    909c:	01 00 00 00 	nop 
    90a0:	c4 07 bf f8 	ld  [ %fp + -8 ], %g2
    90a4:	c2 07 bf f4 	ld  [ %fp + -12 ], %g1
    90a8:	80 a0 80 01 	cmp  %g2, %g1
    90ac:	1a 80 00 2f 	bcc  9168 <calculate_baud_control_word_for_uart+0xfc>
    90b0:	01 00 00 00 	nop 
    90b4:	10 80 00 03 	b  90c0 <calculate_baud_control_word_for_uart+0x54>
    90b8:	01 00 00 00 	nop 
    90bc:	01 00 00 00 	nop 
    90c0:	c2 07 bf f4 	ld  [ %fp + -12 ], %g1
    90c4:	81 80 20 00 	mov  %g0, %y
    90c8:	c6 07 bf f8 	ld  [ %fp + -8 ], %g3
    90cc:	01 00 00 00 	nop 
    90d0:	01 00 00 00 	nop 
    90d4:	86 70 40 03 	udiv  %g1, %g3, %g3
    90d8:	c4 07 bf f8 	ld  [ %fp + -8 ], %g2
    90dc:	84 58 c0 02 	smul  %g3, %g2, %g2
    90e0:	82 20 40 02 	sub  %g1, %g2, %g1
    90e4:	c2 27 bf f0 	st  %g1, [ %fp + -16 ]
    90e8:	c2 07 bf f8 	ld  [ %fp + -8 ], %g1
    90ec:	c2 27 bf f4 	st  %g1, [ %fp + -12 ]
    90f0:	c2 07 bf f0 	ld  [ %fp + -16 ], %g1
    90f4:	c2 27 bf f8 	st  %g1, [ %fp + -8 ]
    90f8:	c2 07 bf f0 	ld  [ %fp + -16 ], %g1
    90fc:	80 a0 60 00 	cmp  %g1, 0
    9100:	12 bf ff ef 	bne  90bc <calculate_baud_control_word_for_uart+0x50>
    9104:	01 00 00 00 	nop 
    9108:	01 00 00 00 	nop 
    910c:	c2 07 a0 44 	ld  [ %fp + 0x44 ], %g1
    9110:	85 28 60 04 	sll  %g1, 4, %g2
    9114:	81 80 20 00 	mov  %g0, %y
    9118:	c2 07 bf f4 	ld  [ %fp + -12 ], %g1
    911c:	01 00 00 00 	nop 
    9120:	01 00 00 00 	nop 
    9124:	82 70 80 01 	udiv  %g2, %g1, %g1
    9128:	c2 27 bf ec 	st  %g1, [ %fp + -20 ]
    912c:	c2 07 a0 48 	ld  [ %fp + 0x48 ], %g1
    9130:	81 80 20 00 	mov  %g0, %y
    9134:	c4 07 bf f4 	ld  [ %fp + -12 ], %g2
    9138:	01 00 00 00 	nop 
    913c:	01 00 00 00 	nop 
    9140:	84 70 40 02 	udiv  %g1, %g2, %g2
    9144:	c2 07 bf ec 	ld  [ %fp + -20 ], %g1
    9148:	82 20 80 01 	sub  %g2, %g1, %g1
    914c:	c2 27 bf e8 	st  %g1, [ %fp + -24 ]
    9150:	c2 07 bf e8 	ld  [ %fp + -24 ], %g1
    9154:	85 28 60 10 	sll  %g1, 0x10, %g2
    9158:	c2 07 bf ec 	ld  [ %fp + -20 ], %g1
    915c:	82 08 6f ff 	and  %g1, 0xfff, %g1
    9160:	82 10 80 01 	or  %g2, %g1, %g1
    9164:	c2 27 bf fc 	st  %g1, [ %fp + -4 ]
    9168:	c2 07 bf fc 	ld  [ %fp + -4 ], %g1
    916c:	b0 10 00 01 	mov  %g1, %i0
    9170:	81 e8 00 00 	restore 
    9174:	81 c3 e0 08 	retl 
    9178:	01 00 00 00 	nop 

0000917c <__ajit_serial_set_baudrate_inner__>:
    917c:	9d e3 bf 98 	save  %sp, -104, %sp
    9180:	82 10 00 18 	mov  %i0, %g1
    9184:	f2 27 a0 48 	st  %i1, [ %fp + 0x48 ]
    9188:	f4 27 a0 4c 	st  %i2, [ %fp + 0x4c ]
    918c:	c2 2f a0 44 	stb  %g1, [ %fp + 0x44 ]
    9190:	03 3f ff cd 	sethi  %hi(0xffff3400), %g1
    9194:	82 10 60 08 	or  %g1, 8, %g1	! ffff3408 <syncLockVars+0xfffe29d0>
    9198:	c2 27 bf fc 	st  %g1, [ %fp + -4 ]
    919c:	d0 07 a0 48 	ld  [ %fp + 0x48 ], %o0
    91a0:	d2 07 a0 4c 	ld  [ %fp + 0x4c ], %o1
    91a4:	7f ff ff b2 	call  906c <calculate_baud_control_word_for_uart>
    91a8:	01 00 00 00 	nop 
    91ac:	d0 27 bf f8 	st  %o0, [ %fp + -8 ]
    91b0:	c2 0f a0 44 	ldub  [ %fp + 0x44 ], %g1
    91b4:	82 08 60 ff 	and  %g1, 0xff, %g1
    91b8:	80 a0 60 00 	cmp  %g1, 0
    91bc:	02 80 00 07 	be  91d8 <__ajit_serial_set_baudrate_inner__+0x5c>
    91c0:	01 00 00 00 	nop 
    91c4:	c2 07 bf fc 	ld  [ %fp + -4 ], %g1
    91c8:	c4 07 bf f8 	ld  [ %fp + -8 ], %g2
    91cc:	c4 20 40 00 	st  %g2, [ %g1 ]
    91d0:	10 80 00 06 	b  91e8 <__ajit_serial_set_baudrate_inner__+0x6c>
    91d4:	01 00 00 00 	nop 
    91d8:	d0 07 bf f8 	ld  [ %fp + -8 ], %o0
    91dc:	d2 07 bf fc 	ld  [ %fp + -4 ], %o1
    91e0:	7f ff fe f0 	call  8da0 <__ajit_store_word_mmu_bypass__>
    91e4:	01 00 00 00 	nop 
    91e8:	81 e8 00 00 	restore 
    91ec:	81 c3 e0 08 	retl 
    91f0:	01 00 00 00 	nop 

000091f4 <__ajit_read_serial_control_register__>:
    91f4:	9d e3 bf 98 	save  %sp, -104, %sp
    91f8:	03 3f ff cc 	sethi  %hi(0xffff3000), %g1
    91fc:	82 10 62 00 	or  %g1, 0x200, %g1	! ffff3200 <syncLockVars+0xfffe27c8>
    9200:	c2 27 bf fc 	st  %g1, [ %fp + -4 ]
    9204:	c0 27 bf f8 	clr  [ %fp + -8 ]
    9208:	c2 07 bf fc 	ld  [ %fp + -4 ], %g1
    920c:	fa 80 44 00 	lda  [ %g1 ] #ASI_SCRATCHPAD, %i5
    9210:	fa 27 bf f8 	st  %i5, [ %fp + -8 ]
    9214:	c2 07 bf f8 	ld  [ %fp + -8 ], %g1
    9218:	b0 10 00 01 	mov  %g1, %i0
    921c:	81 e8 00 00 	restore 
    9220:	81 c3 e0 08 	retl 
    9224:	01 00 00 00 	nop 

00009228 <__ajit_write_serial_tx_register__>:
    9228:	9d e3 bf 98 	save  %sp, -104, %sp
    922c:	82 10 00 18 	mov  %i0, %g1
    9230:	c2 2f a0 44 	stb  %g1, [ %fp + 0x44 ]
    9234:	03 3f ff cc 	sethi  %hi(0xffff3000), %g1
    9238:	82 10 62 04 	or  %g1, 0x204, %g1	! ffff3204 <syncLockVars+0xfffe27cc>
    923c:	c2 27 bf fc 	st  %g1, [ %fp + -4 ]
    9240:	c2 0f a0 44 	ldub  [ %fp + 0x44 ], %g1
    9244:	c4 07 bf fc 	ld  [ %fp + -4 ], %g2
    9248:	c2 a8 84 00 	stba  %g1, [ %g2 ] #ASI_SCRATCHPAD
    924c:	81 e8 00 00 	restore 
    9250:	81 c3 e0 08 	retl 
    9254:	01 00 00 00 	nop 

00009258 <__ajit_read_serial_tx_register__>:
    9258:	9d e3 bf 98 	save  %sp, -104, %sp
    925c:	03 3f ff cc 	sethi  %hi(0xffff3000), %g1
    9260:	82 10 62 04 	or  %g1, 0x204, %g1	! ffff3204 <syncLockVars+0xfffe27cc>
    9264:	c2 27 bf fc 	st  %g1, [ %fp + -4 ]
    9268:	c0 2f bf fb 	clrb  [ %fp + -5 ]
    926c:	c2 07 bf fc 	ld  [ %fp + -4 ], %g1
    9270:	fa 88 44 00 	lduba  [ %g1 ] #ASI_SCRATCHPAD, %i5
    9274:	fa 2f bf fb 	stb  %i5, [ %fp + -5 ]
    9278:	c2 0f bf fb 	ldub  [ %fp + -5 ], %g1
    927c:	82 08 60 ff 	and  %g1, 0xff, %g1
    9280:	b0 10 00 01 	mov  %g1, %i0
    9284:	81 e8 00 00 	restore 
    9288:	81 c3 e0 08 	retl 
    928c:	01 00 00 00 	nop 

00009290 <__ajit_read_serial_rx_register__>:
    9290:	9d e3 bf 98 	save  %sp, -104, %sp
    9294:	03 3f ff cc 	sethi  %hi(0xffff3000), %g1
    9298:	82 10 62 08 	or  %g1, 0x208, %g1	! ffff3208 <syncLockVars+0xfffe27d0>
    929c:	c2 27 bf fc 	st  %g1, [ %fp + -4 ]
    92a0:	c0 2f bf fb 	clrb  [ %fp + -5 ]
    92a4:	c2 07 bf fc 	ld  [ %fp + -4 ], %g1
    92a8:	fa 88 44 00 	lduba  [ %g1 ] #ASI_SCRATCHPAD, %i5
    92ac:	fa 2f bf fb 	stb  %i5, [ %fp + -5 ]
    92b0:	c2 0f bf fb 	ldub  [ %fp + -5 ], %g1
    92b4:	82 08 60 ff 	and  %g1, 0xff, %g1
    92b8:	b0 10 00 01 	mov  %g1, %i0
    92bc:	81 e8 00 00 	restore 
    92c0:	81 c3 e0 08 	retl 
    92c4:	01 00 00 00 	nop 

000092c8 <__ajit_serial_putchar__>:
    92c8:	9d e3 bf 98 	save  %sp, -104, %sp
    92cc:	82 10 00 18 	mov  %i0, %g1
    92d0:	c2 2f a0 44 	stb  %g1, [ %fp + 0x44 ]
    92d4:	c0 27 bf f8 	clr  [ %fp + -8 ]
    92d8:	03 3f ff cc 	sethi  %hi(0xffff3000), %g1
    92dc:	82 10 62 00 	or  %g1, 0x200, %g1	! ffff3200 <syncLockVars+0xfffe27c8>
    92e0:	fa 80 44 00 	lda  [ %g1 ] #ASI_SCRATCHPAD, %i5
    92e4:	fa 27 bf f8 	st  %i5, [ %fp + -8 ]
    92e8:	c0 27 bf fc 	clr  [ %fp + -4 ]
    92ec:	c2 07 bf f8 	ld  [ %fp + -8 ], %g1
    92f0:	82 08 60 01 	and  %g1, 1, %g1
    92f4:	80 a0 60 00 	cmp  %g1, 0
    92f8:	02 80 00 0f 	be  9334 <__ajit_serial_putchar__+0x6c>
    92fc:	01 00 00 00 	nop 
    9300:	c2 07 bf f8 	ld  [ %fp + -8 ], %g1
    9304:	82 08 60 08 	and  %g1, 8, %g1
    9308:	80 a0 60 00 	cmp  %g1, 0
    930c:	12 80 00 0a 	bne  9334 <__ajit_serial_putchar__+0x6c>
    9310:	01 00 00 00 	nop 
    9314:	c2 0f a0 44 	ldub  [ %fp + 0x44 ], %g1
    9318:	05 3f ff cc 	sethi  %hi(0xffff3000), %g2
    931c:	84 10 a2 04 	or  %g2, 0x204, %g2	! ffff3204 <syncLockVars+0xfffe27cc>
    9320:	c2 a8 84 00 	stba  %g1, [ %g2 ] #ASI_SCRATCHPAD
    9324:	c2 0f a0 44 	ldub  [ %fp + 0x44 ], %g1
    9328:	83 28 60 18 	sll  %g1, 0x18, %g1
    932c:	83 38 60 18 	sra  %g1, 0x18, %g1
    9330:	c2 27 bf fc 	st  %g1, [ %fp + -4 ]
    9334:	c2 07 bf fc 	ld  [ %fp + -4 ], %g1
    9338:	b0 10 00 01 	mov  %g1, %i0
    933c:	81 e8 00 00 	restore 
    9340:	81 c3 e0 08 	retl 
    9344:	01 00 00 00 	nop 

00009348 <__ajit_serial_getchar__>:
    9348:	9d e3 bf 90 	save  %sp, -112, %sp
    934c:	c0 27 bf fc 	clr  [ %fp + -4 ]
    9350:	7f ff ff a9 	call  91f4 <__ajit_read_serial_control_register__>
    9354:	01 00 00 00 	nop 
    9358:	d0 27 bf f8 	st  %o0, [ %fp + -8 ]
    935c:	c2 07 bf f8 	ld  [ %fp + -8 ], %g1
    9360:	82 08 60 02 	and  %g1, 2, %g1
    9364:	80 a0 60 00 	cmp  %g1, 0
    9368:	02 80 00 0e 	be  93a0 <__ajit_serial_getchar__+0x58>
    936c:	01 00 00 00 	nop 
    9370:	c2 07 bf f8 	ld  [ %fp + -8 ], %g1
    9374:	82 08 60 10 	and  %g1, 0x10, %g1
    9378:	80 a0 60 00 	cmp  %g1, 0
    937c:	02 80 00 09 	be  93a0 <__ajit_serial_getchar__+0x58>
    9380:	01 00 00 00 	nop 
    9384:	c0 27 bf f4 	clr  [ %fp + -12 ]
    9388:	03 3f ff cc 	sethi  %hi(0xffff3000), %g1
    938c:	82 10 62 08 	or  %g1, 0x208, %g1	! ffff3208 <syncLockVars+0xfffe27d0>
    9390:	fa 88 44 00 	lduba  [ %g1 ] #ASI_SCRATCHPAD, %i5
    9394:	fa 27 bf f4 	st  %i5, [ %fp + -12 ]
    9398:	c2 07 bf f4 	ld  [ %fp + -12 ], %g1
    939c:	c2 27 bf fc 	st  %g1, [ %fp + -4 ]
    93a0:	c2 07 bf fc 	ld  [ %fp + -4 ], %g1
    93a4:	b0 10 00 01 	mov  %g1, %i0
    93a8:	81 e8 00 00 	restore 
    93ac:	81 c3 e0 08 	retl 
    93b0:	01 00 00 00 	nop 

000093b4 <__ajit_serial_puts__>:
    93b4:	9d e3 bf 98 	save  %sp, -104, %sp
    93b8:	f0 27 a0 44 	st  %i0, [ %fp + 0x44 ]
    93bc:	f2 27 a0 48 	st  %i1, [ %fp + 0x48 ]
    93c0:	c0 27 bf fc 	clr  [ %fp + -4 ]
    93c4:	10 80 00 16 	b  941c <__ajit_serial_puts__+0x68>
    93c8:	01 00 00 00 	nop 
    93cc:	c0 27 bf f8 	clr  [ %fp + -8 ]
    93d0:	10 80 00 0c 	b  9400 <__ajit_serial_puts__+0x4c>
    93d4:	01 00 00 00 	nop 
    93d8:	c2 07 bf fc 	ld  [ %fp + -4 ], %g1
    93dc:	c4 07 a0 44 	ld  [ %fp + 0x44 ], %g2
    93e0:	82 00 80 01 	add  %g2, %g1, %g1
    93e4:	c2 08 40 00 	ldub  [ %g1 ], %g1
    93e8:	83 28 60 18 	sll  %g1, 0x18, %g1
    93ec:	83 38 60 18 	sra  %g1, 0x18, %g1
    93f0:	90 10 00 01 	mov  %g1, %o0
    93f4:	7f ff ff b5 	call  92c8 <__ajit_serial_putchar__>
    93f8:	01 00 00 00 	nop 
    93fc:	d0 27 bf f8 	st  %o0, [ %fp + -8 ]
    9400:	c2 07 bf f8 	ld  [ %fp + -8 ], %g1
    9404:	80 a0 60 00 	cmp  %g1, 0
    9408:	02 bf ff f4 	be  93d8 <__ajit_serial_puts__+0x24>
    940c:	01 00 00 00 	nop 
    9410:	c2 07 bf fc 	ld  [ %fp + -4 ], %g1
    9414:	82 00 60 01 	inc  %g1
    9418:	c2 27 bf fc 	st  %g1, [ %fp + -4 ]
    941c:	c4 07 bf fc 	ld  [ %fp + -4 ], %g2
    9420:	c2 07 a0 48 	ld  [ %fp + 0x48 ], %g1
    9424:	80 a0 80 01 	cmp  %g2, %g1
    9428:	0a bf ff e9 	bcs  93cc <__ajit_serial_puts__+0x18>
    942c:	01 00 00 00 	nop 
    9430:	81 e8 00 00 	restore 
    9434:	81 c3 e0 08 	retl 
    9438:	01 00 00 00 	nop 

0000943c <__ajit_serial_gets__>:
    943c:	9d e3 bf 98 	save  %sp, -104, %sp
    9440:	f0 27 a0 44 	st  %i0, [ %fp + 0x44 ]
    9444:	f2 27 a0 48 	st  %i1, [ %fp + 0x48 ]
    9448:	c0 27 bf fc 	clr  [ %fp + -4 ]
    944c:	10 80 00 14 	b  949c <__ajit_serial_gets__+0x60>
    9450:	01 00 00 00 	nop 
    9454:	c0 27 bf f8 	clr  [ %fp + -8 ]
    9458:	10 80 00 05 	b  946c <__ajit_serial_gets__+0x30>
    945c:	01 00 00 00 	nop 
    9460:	7f ff ff ba 	call  9348 <__ajit_serial_getchar__>
    9464:	01 00 00 00 	nop 
    9468:	d0 27 bf f8 	st  %o0, [ %fp + -8 ]
    946c:	c2 07 bf f8 	ld  [ %fp + -8 ], %g1
    9470:	80 a0 60 00 	cmp  %g1, 0
    9474:	02 bf ff fb 	be  9460 <__ajit_serial_gets__+0x24>
    9478:	01 00 00 00 	nop 
    947c:	c2 07 bf fc 	ld  [ %fp + -4 ], %g1
    9480:	c4 07 a0 44 	ld  [ %fp + 0x44 ], %g2
    9484:	82 00 80 01 	add  %g2, %g1, %g1
    9488:	c4 07 bf f8 	ld  [ %fp + -8 ], %g2
    948c:	c4 28 40 00 	stb  %g2, [ %g1 ]
    9490:	c2 07 bf fc 	ld  [ %fp + -4 ], %g1
    9494:	82 00 60 01 	inc  %g1
    9498:	c2 27 bf fc 	st  %g1, [ %fp + -4 ]
    949c:	c4 07 bf fc 	ld  [ %fp + -4 ], %g2
    94a0:	c2 07 a0 48 	ld  [ %fp + 0x48 ], %g1
    94a4:	80 a0 80 01 	cmp  %g2, %g1
    94a8:	0a bf ff eb 	bcs  9454 <__ajit_serial_gets__+0x18>
    94ac:	01 00 00 00 	nop 
    94b0:	81 e8 00 00 	restore 
    94b4:	81 c3 e0 08 	retl 
    94b8:	01 00 00 00 	nop 

000094bc <__ajit_write_serial_control_register_via_vmap__>:
    94bc:	9d e3 bf a0 	save  %sp, -96, %sp
    94c0:	f0 27 a0 44 	st  %i0, [ %fp + 0x44 ]
    94c4:	03 3f ff cc 	sethi  %hi(0xffff3000), %g1
    94c8:	82 10 62 00 	or  %g1, 0x200, %g1	! ffff3200 <syncLockVars+0xfffe27c8>
    94cc:	c4 07 a0 44 	ld  [ %fp + 0x44 ], %g2
    94d0:	c4 20 40 00 	st  %g2, [ %g1 ]
    94d4:	81 e8 00 00 	restore 
    94d8:	81 c3 e0 08 	retl 
    94dc:	01 00 00 00 	nop 

000094e0 <__ajit_read_serial_control_register_via_vmap__>:
    94e0:	9d e3 bf 98 	save  %sp, -104, %sp
    94e4:	03 3f ff cc 	sethi  %hi(0xffff3000), %g1
    94e8:	82 10 62 00 	or  %g1, 0x200, %g1	! ffff3200 <syncLockVars+0xfffe27c8>
    94ec:	c2 08 40 00 	ldub  [ %g1 ], %g1
    94f0:	82 08 60 ff 	and  %g1, 0xff, %g1
    94f4:	c2 27 bf fc 	st  %g1, [ %fp + -4 ]
    94f8:	c2 07 bf fc 	ld  [ %fp + -4 ], %g1
    94fc:	b0 10 00 01 	mov  %g1, %i0
    9500:	81 e8 00 00 	restore 
    9504:	81 c3 e0 08 	retl 
    9508:	01 00 00 00 	nop 

0000950c <__ajit_write_serial_tx_register_via_vmap__>:
    950c:	9d e3 bf a0 	save  %sp, -96, %sp
    9510:	82 10 00 18 	mov  %i0, %g1
    9514:	c2 2f a0 44 	stb  %g1, [ %fp + 0x44 ]
    9518:	03 3f ff cc 	sethi  %hi(0xffff3000), %g1
    951c:	82 10 62 04 	or  %g1, 0x204, %g1	! ffff3204 <syncLockVars+0xfffe27cc>
    9520:	c4 0f a0 44 	ldub  [ %fp + 0x44 ], %g2
    9524:	c4 28 40 00 	stb  %g2, [ %g1 ]
    9528:	81 e8 00 00 	restore 
    952c:	81 c3 e0 08 	retl 
    9530:	01 00 00 00 	nop 

00009534 <__ajit_read_serial_tx_register_via_vmap__>:
    9534:	9d e3 bf 98 	save  %sp, -104, %sp
    9538:	03 3f ff cc 	sethi  %hi(0xffff3000), %g1
    953c:	82 10 62 04 	or  %g1, 0x204, %g1	! ffff3204 <syncLockVars+0xfffe27cc>
    9540:	c2 08 40 00 	ldub  [ %g1 ], %g1
    9544:	c2 2f bf ff 	stb  %g1, [ %fp + -1 ]
    9548:	c2 0f bf ff 	ldub  [ %fp + -1 ], %g1
    954c:	82 08 60 ff 	and  %g1, 0xff, %g1
    9550:	b0 10 00 01 	mov  %g1, %i0
    9554:	81 e8 00 00 	restore 
    9558:	81 c3 e0 08 	retl 
    955c:	01 00 00 00 	nop 

00009560 <__ajit_read_serial_rx_register_via_vmap__>:
    9560:	9d e3 bf 98 	save  %sp, -104, %sp
    9564:	03 3f ff cc 	sethi  %hi(0xffff3000), %g1
    9568:	82 10 62 08 	or  %g1, 0x208, %g1	! ffff3208 <syncLockVars+0xfffe27d0>
    956c:	c2 08 40 00 	ldub  [ %g1 ], %g1
    9570:	c2 2f bf ff 	stb  %g1, [ %fp + -1 ]
    9574:	c2 0f bf ff 	ldub  [ %fp + -1 ], %g1
    9578:	82 08 60 ff 	and  %g1, 0xff, %g1
    957c:	b0 10 00 01 	mov  %g1, %i0
    9580:	81 e8 00 00 	restore 
    9584:	81 c3 e0 08 	retl 
    9588:	01 00 00 00 	nop 

0000958c <__ajit_serial_putchar_via_vmap__>:
    958c:	9d e3 bf 98 	save  %sp, -104, %sp
    9590:	82 10 00 18 	mov  %i0, %g1
    9594:	c2 2f a0 44 	stb  %g1, [ %fp + 0x44 ]
    9598:	c0 27 bf f8 	clr  [ %fp + -8 ]
    959c:	03 3f ff cc 	sethi  %hi(0xffff3000), %g1
    95a0:	82 10 62 00 	or  %g1, 0x200, %g1	! ffff3200 <syncLockVars+0xfffe27c8>
    95a4:	c2 00 40 00 	ld  [ %g1 ], %g1
    95a8:	c2 27 bf f8 	st  %g1, [ %fp + -8 ]
    95ac:	c0 27 bf fc 	clr  [ %fp + -4 ]
    95b0:	c2 07 bf f8 	ld  [ %fp + -8 ], %g1
    95b4:	82 08 60 01 	and  %g1, 1, %g1
    95b8:	80 a0 60 00 	cmp  %g1, 0
    95bc:	02 80 00 0f 	be  95f8 <__ajit_serial_putchar_via_vmap__+0x6c>
    95c0:	01 00 00 00 	nop 
    95c4:	c2 07 bf f8 	ld  [ %fp + -8 ], %g1
    95c8:	82 08 60 08 	and  %g1, 8, %g1
    95cc:	80 a0 60 00 	cmp  %g1, 0
    95d0:	12 80 00 0a 	bne  95f8 <__ajit_serial_putchar_via_vmap__+0x6c>
    95d4:	01 00 00 00 	nop 
    95d8:	03 3f ff cc 	sethi  %hi(0xffff3000), %g1
    95dc:	82 10 62 04 	or  %g1, 0x204, %g1	! ffff3204 <syncLockVars+0xfffe27cc>
    95e0:	c4 0f a0 44 	ldub  [ %fp + 0x44 ], %g2
    95e4:	c4 28 40 00 	stb  %g2, [ %g1 ]
    95e8:	c2 0f a0 44 	ldub  [ %fp + 0x44 ], %g1
    95ec:	83 28 60 18 	sll  %g1, 0x18, %g1
    95f0:	83 38 60 18 	sra  %g1, 0x18, %g1
    95f4:	c2 27 bf fc 	st  %g1, [ %fp + -4 ]
    95f8:	c2 07 bf fc 	ld  [ %fp + -4 ], %g1
    95fc:	b0 10 00 01 	mov  %g1, %i0
    9600:	81 e8 00 00 	restore 
    9604:	81 c3 e0 08 	retl 
    9608:	01 00 00 00 	nop 

0000960c <__ajit_serial_getchar_via_vmap__>:
    960c:	9d e3 bf 90 	save  %sp, -112, %sp
    9610:	c0 27 bf fc 	clr  [ %fp + -4 ]
    9614:	03 3f ff cc 	sethi  %hi(0xffff3000), %g1
    9618:	82 10 62 00 	or  %g1, 0x200, %g1	! ffff3200 <syncLockVars+0xfffe27c8>
    961c:	c2 00 40 00 	ld  [ %g1 ], %g1
    9620:	c2 27 bf f8 	st  %g1, [ %fp + -8 ]
    9624:	c2 07 bf f8 	ld  [ %fp + -8 ], %g1
    9628:	82 08 60 02 	and  %g1, 2, %g1
    962c:	80 a0 60 00 	cmp  %g1, 0
    9630:	02 80 00 0f 	be  966c <__ajit_serial_getchar_via_vmap__+0x60>
    9634:	01 00 00 00 	nop 
    9638:	c2 07 bf f8 	ld  [ %fp + -8 ], %g1
    963c:	82 08 60 10 	and  %g1, 0x10, %g1
    9640:	80 a0 60 00 	cmp  %g1, 0
    9644:	02 80 00 0a 	be  966c <__ajit_serial_getchar_via_vmap__+0x60>
    9648:	01 00 00 00 	nop 
    964c:	c0 27 bf f4 	clr  [ %fp + -12 ]
    9650:	03 3f ff cc 	sethi  %hi(0xffff3000), %g1
    9654:	82 10 62 08 	or  %g1, 0x208, %g1	! ffff3208 <syncLockVars+0xfffe27d0>
    9658:	c2 08 40 00 	ldub  [ %g1 ], %g1
    965c:	82 08 60 ff 	and  %g1, 0xff, %g1
    9660:	c2 27 bf f4 	st  %g1, [ %fp + -12 ]
    9664:	c2 07 bf f4 	ld  [ %fp + -12 ], %g1
    9668:	c2 27 bf fc 	st  %g1, [ %fp + -4 ]
    966c:	c2 07 bf fc 	ld  [ %fp + -4 ], %g1
    9670:	b0 10 00 01 	mov  %g1, %i0
    9674:	81 e8 00 00 	restore 
    9678:	81 c3 e0 08 	retl 
    967c:	01 00 00 00 	nop 

00009680 <__ajit_serial_puts_via_vmap__>:
    9680:	9d e3 bf 98 	save  %sp, -104, %sp
    9684:	f0 27 a0 44 	st  %i0, [ %fp + 0x44 ]
    9688:	f2 27 a0 48 	st  %i1, [ %fp + 0x48 ]
    968c:	c0 27 bf fc 	clr  [ %fp + -4 ]
    9690:	10 80 00 16 	b  96e8 <__ajit_serial_puts_via_vmap__+0x68>
    9694:	01 00 00 00 	nop 
    9698:	c0 27 bf f8 	clr  [ %fp + -8 ]
    969c:	10 80 00 0c 	b  96cc <__ajit_serial_puts_via_vmap__+0x4c>
    96a0:	01 00 00 00 	nop 
    96a4:	c2 07 bf fc 	ld  [ %fp + -4 ], %g1
    96a8:	c4 07 a0 44 	ld  [ %fp + 0x44 ], %g2
    96ac:	82 00 80 01 	add  %g2, %g1, %g1
    96b0:	c2 08 40 00 	ldub  [ %g1 ], %g1
    96b4:	83 28 60 18 	sll  %g1, 0x18, %g1
    96b8:	83 38 60 18 	sra  %g1, 0x18, %g1
    96bc:	90 10 00 01 	mov  %g1, %o0
    96c0:	7f ff ff b3 	call  958c <__ajit_serial_putchar_via_vmap__>
    96c4:	01 00 00 00 	nop 
    96c8:	d0 27 bf f8 	st  %o0, [ %fp + -8 ]
    96cc:	c2 07 bf f8 	ld  [ %fp + -8 ], %g1
    96d0:	80 a0 60 00 	cmp  %g1, 0
    96d4:	02 bf ff f4 	be  96a4 <__ajit_serial_puts_via_vmap__+0x24>
    96d8:	01 00 00 00 	nop 
    96dc:	c2 07 bf fc 	ld  [ %fp + -4 ], %g1
    96e0:	82 00 60 01 	inc  %g1
    96e4:	c2 27 bf fc 	st  %g1, [ %fp + -4 ]
    96e8:	c4 07 bf fc 	ld  [ %fp + -4 ], %g2
    96ec:	c2 07 a0 48 	ld  [ %fp + 0x48 ], %g1
    96f0:	80 a0 80 01 	cmp  %g2, %g1
    96f4:	0a bf ff e9 	bcs  9698 <__ajit_serial_puts_via_vmap__+0x18>
    96f8:	01 00 00 00 	nop 
    96fc:	81 e8 00 00 	restore 
    9700:	81 c3 e0 08 	retl 
    9704:	01 00 00 00 	nop 

00009708 <__ajit_serial_gets_via_vmap__>:
    9708:	9d e3 bf 98 	save  %sp, -104, %sp
    970c:	f0 27 a0 44 	st  %i0, [ %fp + 0x44 ]
    9710:	f2 27 a0 48 	st  %i1, [ %fp + 0x48 ]
    9714:	c0 27 bf fc 	clr  [ %fp + -4 ]
    9718:	10 80 00 14 	b  9768 <__ajit_serial_gets_via_vmap__+0x60>
    971c:	01 00 00 00 	nop 
    9720:	c0 27 bf f8 	clr  [ %fp + -8 ]
    9724:	10 80 00 05 	b  9738 <__ajit_serial_gets_via_vmap__+0x30>
    9728:	01 00 00 00 	nop 
    972c:	7f ff ff b8 	call  960c <__ajit_serial_getchar_via_vmap__>
    9730:	01 00 00 00 	nop 
    9734:	d0 27 bf f8 	st  %o0, [ %fp + -8 ]
    9738:	c2 07 bf f8 	ld  [ %fp + -8 ], %g1
    973c:	80 a0 60 00 	cmp  %g1, 0
    9740:	02 bf ff fb 	be  972c <__ajit_serial_gets_via_vmap__+0x24>
    9744:	01 00 00 00 	nop 
    9748:	c2 07 bf fc 	ld  [ %fp + -4 ], %g1
    974c:	c4 07 a0 44 	ld  [ %fp + 0x44 ], %g2
    9750:	82 00 80 01 	add  %g2, %g1, %g1
    9754:	c4 07 bf f8 	ld  [ %fp + -8 ], %g2
    9758:	c4 28 40 00 	stb  %g2, [ %g1 ]
    975c:	c2 07 bf fc 	ld  [ %fp + -4 ], %g1
    9760:	82 00 60 01 	inc  %g1
    9764:	c2 27 bf fc 	st  %g1, [ %fp + -4 ]
    9768:	c4 07 bf fc 	ld  [ %fp + -4 ], %g2
    976c:	c2 07 a0 48 	ld  [ %fp + 0x48 ], %g1
    9770:	80 a0 80 01 	cmp  %g2, %g1
    9774:	0a bf ff eb 	bcs  9720 <__ajit_serial_gets_via_vmap__+0x18>
    9778:	01 00 00 00 	nop 
    977c:	81 e8 00 00 	restore 
    9780:	81 c3 e0 08 	retl 
    9784:	01 00 00 00 	nop 

00009788 <__ajit_serial_configure_via_vmap__>:
    9788:	9d e3 bf 98 	save  %sp, -104, %sp
    978c:	86 10 00 18 	mov  %i0, %g3
    9790:	84 10 00 19 	mov  %i1, %g2
    9794:	82 10 00 1a 	mov  %i2, %g1
    9798:	c6 2f a0 44 	stb  %g3, [ %fp + 0x44 ]
    979c:	c4 2f a0 48 	stb  %g2, [ %fp + 0x48 ]
    97a0:	c2 2f a0 4c 	stb  %g1, [ %fp + 0x4c ]
    97a4:	03 3f ff cc 	sethi  %hi(0xffff3000), %g1
    97a8:	82 10 62 00 	or  %g1, 0x200, %g1	! ffff3200 <syncLockVars+0xfffe27c8>
    97ac:	c2 00 40 00 	ld  [ %g1 ], %g1
    97b0:	c2 27 bf fc 	st  %g1, [ %fp + -4 ]
    97b4:	c2 0f a0 44 	ldub  [ %fp + 0x44 ], %g1
    97b8:	82 08 60 ff 	and  %g1, 0xff, %g1
    97bc:	80 a0 60 00 	cmp  %g1, 0
    97c0:	02 80 00 07 	be  97dc <__ajit_serial_configure_via_vmap__+0x54>
    97c4:	01 00 00 00 	nop 
    97c8:	c2 07 bf fc 	ld  [ %fp + -4 ], %g1
    97cc:	82 10 60 01 	or  %g1, 1, %g1
    97d0:	c2 27 bf fc 	st  %g1, [ %fp + -4 ]
    97d4:	10 80 00 05 	b  97e8 <__ajit_serial_configure_via_vmap__+0x60>
    97d8:	01 00 00 00 	nop 
    97dc:	c2 07 bf fc 	ld  [ %fp + -4 ], %g1
    97e0:	82 08 7f fe 	and  %g1, -2, %g1
    97e4:	c2 27 bf fc 	st  %g1, [ %fp + -4 ]
    97e8:	c2 0f a0 48 	ldub  [ %fp + 0x48 ], %g1
    97ec:	82 08 60 ff 	and  %g1, 0xff, %g1
    97f0:	80 a0 60 00 	cmp  %g1, 0
    97f4:	02 80 00 07 	be  9810 <__ajit_serial_configure_via_vmap__+0x88>
    97f8:	01 00 00 00 	nop 
    97fc:	c2 07 bf fc 	ld  [ %fp + -4 ], %g1
    9800:	82 10 60 02 	or  %g1, 2, %g1
    9804:	c2 27 bf fc 	st  %g1, [ %fp + -4 ]
    9808:	10 80 00 05 	b  981c <__ajit_serial_configure_via_vmap__+0x94>
    980c:	01 00 00 00 	nop 
    9810:	c2 07 bf fc 	ld  [ %fp + -4 ], %g1
    9814:	82 08 7f fd 	and  %g1, -3, %g1
    9818:	c2 27 bf fc 	st  %g1, [ %fp + -4 ]
    981c:	c2 0f a0 4c 	ldub  [ %fp + 0x4c ], %g1
    9820:	82 08 60 ff 	and  %g1, 0xff, %g1
    9824:	80 a0 60 00 	cmp  %g1, 0
    9828:	02 80 00 07 	be  9844 <__ajit_serial_configure_via_vmap__+0xbc>
    982c:	01 00 00 00 	nop 
    9830:	c2 07 bf fc 	ld  [ %fp + -4 ], %g1
    9834:	82 10 60 04 	or  %g1, 4, %g1
    9838:	c2 27 bf fc 	st  %g1, [ %fp + -4 ]
    983c:	10 80 00 05 	b  9850 <__ajit_serial_configure_via_vmap__+0xc8>
    9840:	01 00 00 00 	nop 
    9844:	c2 07 bf fc 	ld  [ %fp + -4 ], %g1
    9848:	82 08 7f fb 	and  %g1, -5, %g1
    984c:	c2 27 bf fc 	st  %g1, [ %fp + -4 ]
    9850:	03 3f ff cc 	sethi  %hi(0xffff3000), %g1
    9854:	82 10 62 00 	or  %g1, 0x200, %g1	! ffff3200 <syncLockVars+0xfffe27c8>
    9858:	c4 07 bf fc 	ld  [ %fp + -4 ], %g2
    985c:	c4 20 40 00 	st  %g2, [ %g1 ]
    9860:	81 e8 00 00 	restore 
    9864:	81 c3 e0 08 	retl 
    9868:	01 00 00 00 	nop 

0000986c <__ajit_serial_uart_reset_via_vmap__>:
    986c:	9d e3 bf a0 	save  %sp, -96, %sp
    9870:	90 10 20 01 	mov  1, %o0
    9874:	40 00 00 05 	call  9888 <__ajit_serial_uart_reset_inner__>
    9878:	01 00 00 00 	nop 
    987c:	81 e8 00 00 	restore 
    9880:	81 c3 e0 08 	retl 
    9884:	01 00 00 00 	nop 

00009888 <__ajit_serial_uart_reset_inner__>:
    9888:	9d e3 bf 98 	save  %sp, -104, %sp
    988c:	82 10 00 18 	mov  %i0, %g1
    9890:	c2 2f a0 44 	stb  %g1, [ %fp + 0x44 ]
    9894:	82 10 20 08 	mov  8, %g1
    9898:	c2 27 bf fc 	st  %g1, [ %fp + -4 ]
    989c:	c2 0f a0 44 	ldub  [ %fp + 0x44 ], %g1
    98a0:	82 08 60 ff 	and  %g1, 0xff, %g1
    98a4:	80 a0 60 00 	cmp  %g1, 0
    98a8:	02 80 00 0d 	be  98dc <__ajit_serial_uart_reset_inner__+0x54>
    98ac:	01 00 00 00 	nop 
    98b0:	7f ff ff 0c 	call  94e0 <__ajit_read_serial_control_register_via_vmap__>
    98b4:	01 00 00 00 	nop 
    98b8:	d0 27 bf f8 	st  %o0, [ %fp + -8 ]
    98bc:	d0 07 bf fc 	ld  [ %fp + -4 ], %o0
    98c0:	7f ff fe ff 	call  94bc <__ajit_write_serial_control_register_via_vmap__>
    98c4:	01 00 00 00 	nop 
    98c8:	d0 07 bf f8 	ld  [ %fp + -8 ], %o0
    98cc:	7f ff fe fc 	call  94bc <__ajit_write_serial_control_register_via_vmap__>
    98d0:	01 00 00 00 	nop 
    98d4:	10 80 00 0b 	b  9900 <__ajit_serial_uart_reset_inner__+0x78>
    98d8:	01 00 00 00 	nop 
    98dc:	7f ff fe 46 	call  91f4 <__ajit_read_serial_control_register__>
    98e0:	01 00 00 00 	nop 
    98e4:	d0 27 bf f8 	st  %o0, [ %fp + -8 ]
    98e8:	d0 07 bf fc 	ld  [ %fp + -4 ], %o0
    98ec:	7f ff fd 7e 	call  8ee4 <__ajit_write_serial_control_register__>
    98f0:	01 00 00 00 	nop 
    98f4:	d0 07 bf f8 	ld  [ %fp + -8 ], %o0
    98f8:	7f ff fd 7b 	call  8ee4 <__ajit_write_serial_control_register__>
    98fc:	01 00 00 00 	nop 
    9900:	81 e8 00 00 	restore 
    9904:	81 c3 e0 08 	retl 
    9908:	01 00 00 00 	nop 

0000990c <__ajit_write_irc_control_register__>:
    990c:	9d e3 bf 98 	save  %sp, -104, %sp
    9910:	f0 27 a0 44 	st  %i0, [ %fp + 0x44 ]
    9914:	03 3f ff cc 	sethi  %hi(0xffff3000), %g1
    9918:	c2 27 bf fc 	st  %g1, [ %fp + -4 ]
    991c:	d0 07 a0 44 	ld  [ %fp + 0x44 ], %o0
    9920:	d2 07 bf fc 	ld  [ %fp + -4 ], %o1
    9924:	7f ff fd 1f 	call  8da0 <__ajit_store_word_mmu_bypass__>
    9928:	01 00 00 00 	nop 
    992c:	81 e8 00 00 	restore 
    9930:	81 c3 e0 08 	retl 
    9934:	01 00 00 00 	nop 

00009938 <__ajit_read_irc_control_register__>:
    9938:	9d e3 bf 98 	save  %sp, -104, %sp
    993c:	03 3f ff cc 	sethi  %hi(0xffff3000), %g1
    9940:	c2 27 bf fc 	st  %g1, [ %fp + -4 ]
    9944:	d0 07 bf fc 	ld  [ %fp + -4 ], %o0
    9948:	7f ff fd 29 	call  8dec <__ajit_load_word_mmu_bypass__>
    994c:	01 00 00 00 	nop 
    9950:	d0 27 bf f8 	st  %o0, [ %fp + -8 ]
    9954:	c2 07 bf f8 	ld  [ %fp + -8 ], %g1
    9958:	b0 10 00 01 	mov  %g1, %i0
    995c:	81 e8 00 00 	restore 
    9960:	81 c3 e0 08 	retl 
    9964:	01 00 00 00 	nop 

00009968 <__ajit_write_irc_control_register_via_vmap__>:
    9968:	9d e3 bf a0 	save  %sp, -96, %sp
    996c:	f0 27 a0 44 	st  %i0, [ %fp + 0x44 ]
    9970:	03 3f ff cc 	sethi  %hi(0xffff3000), %g1
    9974:	c4 07 a0 44 	ld  [ %fp + 0x44 ], %g2
    9978:	c4 20 40 00 	st  %g2, [ %g1 ]
    997c:	81 e8 00 00 	restore 
    9980:	81 c3 e0 08 	retl 
    9984:	01 00 00 00 	nop 

00009988 <__ajit_read_irc_control_register_via_vmap__>:
    9988:	9d e3 bf 98 	save  %sp, -104, %sp
    998c:	03 3f ff cc 	sethi  %hi(0xffff3000), %g1
    9990:	c2 00 40 00 	ld  [ %g1 ], %g1
    9994:	c2 27 bf fc 	st  %g1, [ %fp + -4 ]
    9998:	c2 07 bf fc 	ld  [ %fp + -4 ], %g1
    999c:	b0 10 00 01 	mov  %g1, %i0
    99a0:	81 e8 00 00 	restore 
    99a4:	81 c3 e0 08 	retl 
    99a8:	01 00 00 00 	nop 

000099ac <__ajit_write_spi_master_register__>:
    99ac:	9d e3 bf 98 	save  %sp, -104, %sp
    99b0:	84 10 00 18 	mov  %i0, %g2
    99b4:	82 10 00 19 	mov  %i1, %g1
    99b8:	c4 2f a0 44 	stb  %g2, [ %fp + 0x44 ]
    99bc:	c2 2f a0 48 	stb  %g1, [ %fp + 0x48 ]
    99c0:	c2 0f a0 44 	ldub  [ %fp + 0x44 ], %g1
    99c4:	82 08 60 ff 	and  %g1, 0xff, %g1
    99c8:	83 28 60 02 	sll  %g1, 2, %g1
    99cc:	84 10 00 01 	mov  %g1, %g2
    99d0:	03 3f ff cc 	sethi  %hi(0xffff3000), %g1
    99d4:	82 10 63 00 	or  %g1, 0x300, %g1	! ffff3300 <syncLockVars+0xfffe28c8>
    99d8:	82 00 80 01 	add  %g2, %g1, %g1
    99dc:	c2 27 bf fc 	st  %g1, [ %fp + -4 ]
    99e0:	c2 0f a0 48 	ldub  [ %fp + 0x48 ], %g1
    99e4:	82 08 60 ff 	and  %g1, 0xff, %g1
    99e8:	90 10 00 01 	mov  %g1, %o0
    99ec:	d2 07 bf fc 	ld  [ %fp + -4 ], %o1
    99f0:	7f ff fc ec 	call  8da0 <__ajit_store_word_mmu_bypass__>
    99f4:	01 00 00 00 	nop 
    99f8:	81 e8 00 00 	restore 
    99fc:	81 c3 e0 08 	retl 
    9a00:	01 00 00 00 	nop 

00009a04 <__ajit_write_spi_master_register_via_vmap__>:
    9a04:	9d e3 bf 98 	save  %sp, -104, %sp
    9a08:	84 10 00 18 	mov  %i0, %g2
    9a0c:	82 10 00 19 	mov  %i1, %g1
    9a10:	c4 2f a0 44 	stb  %g2, [ %fp + 0x44 ]
    9a14:	c2 2f a0 48 	stb  %g1, [ %fp + 0x48 ]
    9a18:	c2 0f a0 44 	ldub  [ %fp + 0x44 ], %g1
    9a1c:	82 08 60 ff 	and  %g1, 0xff, %g1
    9a20:	83 28 60 02 	sll  %g1, 2, %g1
    9a24:	84 10 00 01 	mov  %g1, %g2
    9a28:	03 3f ff cc 	sethi  %hi(0xffff3000), %g1
    9a2c:	82 10 63 00 	or  %g1, 0x300, %g1	! ffff3300 <syncLockVars+0xfffe28c8>
    9a30:	82 00 80 01 	add  %g2, %g1, %g1
    9a34:	c2 27 bf fc 	st  %g1, [ %fp + -4 ]
    9a38:	c2 07 bf fc 	ld  [ %fp + -4 ], %g1
    9a3c:	c4 0f a0 48 	ldub  [ %fp + 0x48 ], %g2
    9a40:	c4 28 40 00 	stb  %g2, [ %g1 ]
    9a44:	81 e8 00 00 	restore 
    9a48:	81 c3 e0 08 	retl 
    9a4c:	01 00 00 00 	nop 

00009a50 <__ajit_read_spi_master_register__>:
    9a50:	9d e3 bf 98 	save  %sp, -104, %sp
    9a54:	82 10 00 18 	mov  %i0, %g1
    9a58:	c2 2f a0 44 	stb  %g1, [ %fp + 0x44 ]
    9a5c:	c2 0f a0 44 	ldub  [ %fp + 0x44 ], %g1
    9a60:	82 08 60 ff 	and  %g1, 0xff, %g1
    9a64:	83 28 60 02 	sll  %g1, 2, %g1
    9a68:	84 10 00 01 	mov  %g1, %g2
    9a6c:	03 3f ff cc 	sethi  %hi(0xffff3000), %g1
    9a70:	82 10 63 00 	or  %g1, 0x300, %g1	! ffff3300 <syncLockVars+0xfffe28c8>
    9a74:	82 00 80 01 	add  %g2, %g1, %g1
    9a78:	c2 27 bf fc 	st  %g1, [ %fp + -4 ]
    9a7c:	d0 07 bf fc 	ld  [ %fp + -4 ], %o0
    9a80:	7f ff fc db 	call  8dec <__ajit_load_word_mmu_bypass__>
    9a84:	01 00 00 00 	nop 
    9a88:	d0 27 bf f8 	st  %o0, [ %fp + -8 ]
    9a8c:	c2 07 bf f8 	ld  [ %fp + -8 ], %g1
    9a90:	82 08 60 ff 	and  %g1, 0xff, %g1
    9a94:	b0 10 00 01 	mov  %g1, %i0
    9a98:	81 e8 00 00 	restore 
    9a9c:	81 c3 e0 08 	retl 
    9aa0:	01 00 00 00 	nop 

00009aa4 <__ajit_read_spi_master_register_via_vmap__>:
    9aa4:	9d e3 bf 98 	save  %sp, -104, %sp
    9aa8:	82 10 00 18 	mov  %i0, %g1
    9aac:	c2 2f a0 44 	stb  %g1, [ %fp + 0x44 ]
    9ab0:	c2 0f a0 44 	ldub  [ %fp + 0x44 ], %g1
    9ab4:	82 08 60 ff 	and  %g1, 0xff, %g1
    9ab8:	83 28 60 02 	sll  %g1, 2, %g1
    9abc:	84 10 00 01 	mov  %g1, %g2
    9ac0:	03 3f ff cc 	sethi  %hi(0xffff3000), %g1
    9ac4:	82 10 63 00 	or  %g1, 0x300, %g1	! ffff3300 <syncLockVars+0xfffe28c8>
    9ac8:	82 00 80 01 	add  %g2, %g1, %g1
    9acc:	c2 27 bf fc 	st  %g1, [ %fp + -4 ]
    9ad0:	c2 07 bf fc 	ld  [ %fp + -4 ], %g1
    9ad4:	c2 08 40 00 	ldub  [ %g1 ], %g1
    9ad8:	82 08 60 ff 	and  %g1, 0xff, %g1
    9adc:	c2 27 bf f8 	st  %g1, [ %fp + -8 ]
    9ae0:	c2 07 bf f8 	ld  [ %fp + -8 ], %g1
    9ae4:	82 08 60 ff 	and  %g1, 0xff, %g1
    9ae8:	b0 10 00 01 	mov  %g1, %i0
    9aec:	81 e8 00 00 	restore 
    9af0:	81 c3 e0 08 	retl 
    9af4:	01 00 00 00 	nop 

00009af8 <__ajit_gpio_xfer__>:
    9af8:	9d e3 bf 90 	save  %sp, -112, %sp
    9afc:	82 10 00 18 	mov  %i0, %g1
    9b00:	c2 2f a0 44 	stb  %g1, [ %fp + 0x44 ]
    9b04:	c0 27 bf f4 	clr  [ %fp + -12 ]
    9b08:	82 10 20 01 	mov  1, %g1
    9b0c:	c2 27 bf f8 	st  %g1, [ %fp + -8 ]
    9b10:	c2 0f a0 44 	ldub  [ %fp + 0x44 ], %g1
    9b14:	82 08 60 ff 	and  %g1, 0xff, %g1
    9b18:	90 10 20 00 	clr  %o0
    9b1c:	92 10 00 01 	mov  %g1, %o1
    9b20:	7f ff ff a3 	call  99ac <__ajit_write_spi_master_register__>
    9b24:	01 00 00 00 	nop 
    9b28:	82 10 20 13 	mov  0x13, %g1	! 13 <_start+0x13>
    9b2c:	c2 2f bf f3 	stb  %g1, [ %fp + -13 ]
    9b30:	c2 0f bf f3 	ldub  [ %fp + -13 ], %g1
    9b34:	82 08 60 ff 	and  %g1, 0xff, %g1
    9b38:	90 10 20 02 	mov  2, %o0
    9b3c:	92 10 00 01 	mov  %g1, %o1
    9b40:	7f ff ff 9b 	call  99ac <__ajit_write_spi_master_register__>
    9b44:	01 00 00 00 	nop 
    9b48:	82 10 21 00 	mov  0x100, %g1	! 100 <CORTOS_INIT_TO_ZERO_START+0xc0>
    9b4c:	c2 27 bf fc 	st  %g1, [ %fp + -4 ]
    9b50:	10 80 00 0b 	b  9b7c <__ajit_gpio_xfer__+0x84>
    9b54:	01 00 00 00 	nop 
    9b58:	90 10 20 02 	mov  2, %o0	! 2 <_start+0x2>
    9b5c:	7f ff ff bd 	call  9a50 <__ajit_read_spi_master_register__>
    9b60:	01 00 00 00 	nop 
    9b64:	82 10 00 08 	mov  %o0, %g1
    9b68:	82 08 60 ff 	and  %g1, 0xff, %g1
    9b6c:	c2 27 bf f8 	st  %g1, [ %fp + -8 ]
    9b70:	c2 07 bf fc 	ld  [ %fp + -4 ], %g1
    9b74:	82 00 7f ff 	add  %g1, -1, %g1
    9b78:	c2 27 bf fc 	st  %g1, [ %fp + -4 ]
    9b7c:	c2 07 bf fc 	ld  [ %fp + -4 ], %g1
    9b80:	85 38 60 1f 	sra  %g1, 0x1f, %g2
    9b84:	c2 07 bf fc 	ld  [ %fp + -4 ], %g1
    9b88:	82 20 80 01 	sub  %g2, %g1, %g1
    9b8c:	83 30 60 1f 	srl  %g1, 0x1f, %g1
    9b90:	84 08 60 ff 	and  %g1, 0xff, %g2
    9b94:	c2 07 bf f8 	ld  [ %fp + -8 ], %g1
    9b98:	82 08 80 01 	and  %g2, %g1, %g1
    9b9c:	80 a0 60 00 	cmp  %g1, 0
    9ba0:	12 bf ff ee 	bne  9b58 <__ajit_gpio_xfer__+0x60>
    9ba4:	01 00 00 00 	nop 
    9ba8:	90 10 20 00 	clr  %o0	! 0 <_start>
    9bac:	7f ff ff a9 	call  9a50 <__ajit_read_spi_master_register__>
    9bb0:	01 00 00 00 	nop 
    9bb4:	82 10 00 08 	mov  %o0, %g1
    9bb8:	82 08 60 ff 	and  %g1, 0xff, %g1
    9bbc:	c2 27 bf f4 	st  %g1, [ %fp + -12 ]
    9bc0:	c2 07 bf f4 	ld  [ %fp + -12 ], %g1
    9bc4:	b0 10 00 01 	mov  %g1, %i0
    9bc8:	81 e8 00 00 	restore 
    9bcc:	81 c3 e0 08 	retl 
    9bd0:	01 00 00 00 	nop 

00009bd4 <__ajit_gpio_xfer_via_vmap__>:
    9bd4:	9d e3 bf 90 	save  %sp, -112, %sp
    9bd8:	82 10 00 18 	mov  %i0, %g1
    9bdc:	c2 2f a0 44 	stb  %g1, [ %fp + 0x44 ]
    9be0:	c0 27 bf f4 	clr  [ %fp + -12 ]
    9be4:	82 10 20 01 	mov  1, %g1
    9be8:	c2 27 bf f8 	st  %g1, [ %fp + -8 ]
    9bec:	c2 0f a0 44 	ldub  [ %fp + 0x44 ], %g1
    9bf0:	82 08 60 ff 	and  %g1, 0xff, %g1
    9bf4:	90 10 20 00 	clr  %o0
    9bf8:	92 10 00 01 	mov  %g1, %o1
    9bfc:	7f ff ff 82 	call  9a04 <__ajit_write_spi_master_register_via_vmap__>
    9c00:	01 00 00 00 	nop 
    9c04:	82 10 20 13 	mov  0x13, %g1	! 13 <_start+0x13>
    9c08:	c2 2f bf f3 	stb  %g1, [ %fp + -13 ]
    9c0c:	c2 0f bf f3 	ldub  [ %fp + -13 ], %g1
    9c10:	82 08 60 ff 	and  %g1, 0xff, %g1
    9c14:	90 10 20 02 	mov  2, %o0
    9c18:	92 10 00 01 	mov  %g1, %o1
    9c1c:	7f ff ff 7a 	call  9a04 <__ajit_write_spi_master_register_via_vmap__>
    9c20:	01 00 00 00 	nop 
    9c24:	82 10 21 00 	mov  0x100, %g1	! 100 <CORTOS_INIT_TO_ZERO_START+0xc0>
    9c28:	c2 27 bf fc 	st  %g1, [ %fp + -4 ]
    9c2c:	10 80 00 0b 	b  9c58 <__ajit_gpio_xfer_via_vmap__+0x84>
    9c30:	01 00 00 00 	nop 
    9c34:	90 10 20 02 	mov  2, %o0	! 2 <_start+0x2>
    9c38:	7f ff ff 9b 	call  9aa4 <__ajit_read_spi_master_register_via_vmap__>
    9c3c:	01 00 00 00 	nop 
    9c40:	82 10 00 08 	mov  %o0, %g1
    9c44:	82 08 60 ff 	and  %g1, 0xff, %g1
    9c48:	c2 27 bf f8 	st  %g1, [ %fp + -8 ]
    9c4c:	c2 07 bf fc 	ld  [ %fp + -4 ], %g1
    9c50:	82 00 7f ff 	add  %g1, -1, %g1
    9c54:	c2 27 bf fc 	st  %g1, [ %fp + -4 ]
    9c58:	c2 07 bf fc 	ld  [ %fp + -4 ], %g1
    9c5c:	85 38 60 1f 	sra  %g1, 0x1f, %g2
    9c60:	c2 07 bf fc 	ld  [ %fp + -4 ], %g1
    9c64:	82 20 80 01 	sub  %g2, %g1, %g1
    9c68:	83 30 60 1f 	srl  %g1, 0x1f, %g1
    9c6c:	84 08 60 ff 	and  %g1, 0xff, %g2
    9c70:	c2 07 bf f8 	ld  [ %fp + -8 ], %g1
    9c74:	82 08 80 01 	and  %g2, %g1, %g1
    9c78:	80 a0 60 00 	cmp  %g1, 0
    9c7c:	12 bf ff ee 	bne  9c34 <__ajit_gpio_xfer_via_vmap__+0x60>
    9c80:	01 00 00 00 	nop 
    9c84:	90 10 20 00 	clr  %o0	! 0 <_start>
    9c88:	7f ff ff 87 	call  9aa4 <__ajit_read_spi_master_register_via_vmap__>
    9c8c:	01 00 00 00 	nop 
    9c90:	82 10 00 08 	mov  %o0, %g1
    9c94:	82 08 60 ff 	and  %g1, 0xff, %g1
    9c98:	c2 27 bf f4 	st  %g1, [ %fp + -12 ]
    9c9c:	c2 07 bf f4 	ld  [ %fp + -12 ], %g1
    9ca0:	b0 10 00 01 	mov  %g1, %i0
    9ca4:	81 e8 00 00 	restore 
    9ca8:	81 c3 e0 08 	retl 
    9cac:	01 00 00 00 	nop 

00009cb0 <__ajit_ta_0__>:
    9cb0:	9d e3 bf a0 	save  %sp, -96, %sp
    9cb4:	91 d0 20 00 	ta  0
    9cb8:	01 00 00 00 	nop 
    9cbc:	01 00 00 00 	nop 
    9cc0:	81 e8 00 00 	restore 
    9cc4:	81 c3 e0 08 	retl 
    9cc8:	01 00 00 00 	nop 

00009ccc <__ajit_fsqrtd__>:
    9ccc:	9d e3 bf a0 	save  %sp, -96, %sp
    9cd0:	f0 27 a0 44 	st  %i0, [ %fp + 0x44 ]
    9cd4:	f2 27 a0 48 	st  %i1, [ %fp + 0x48 ]
    9cd8:	c2 07 a0 44 	ld  [ %fp + 0x44 ], %g1
    9cdc:	c4 07 a0 48 	ld  [ %fp + 0x48 ], %g2
    9ce0:	c1 18 40 00 	ldd  [ %g1 ], %f0
    9ce4:	85 a0 05 40 	fsqrtd  %f0, %f2
    9ce8:	c5 38 80 00 	std  %f2, [ %g2 ]
    9cec:	81 e8 00 00 	restore 
    9cf0:	81 c3 e0 08 	retl 
    9cf4:	01 00 00 00 	nop 

00009cf8 <__ajit_fsqrts__>:
    9cf8:	9d e3 bf a0 	save  %sp, -96, %sp
    9cfc:	f0 27 a0 44 	st  %i0, [ %fp + 0x44 ]
    9d00:	f2 27 a0 48 	st  %i1, [ %fp + 0x48 ]
    9d04:	c2 07 a0 44 	ld  [ %fp + 0x44 ], %g1
    9d08:	c4 07 a0 48 	ld  [ %fp + 0x48 ], %g2
    9d0c:	c1 00 40 00 	ld  [ %g1 ], %f0
    9d10:	83 a0 05 20 	fsqrts  %f0, %f1
    9d14:	c3 20 80 00 	st  %f1, [ %g2 ]
    9d18:	81 e8 00 00 	restore 
    9d1c:	81 c3 e0 08 	retl 
    9d20:	01 00 00 00 	nop 

00009d24 <__ajit_fitod__>:
    9d24:	9d e3 bf a0 	save  %sp, -96, %sp
    9d28:	f0 27 a0 44 	st  %i0, [ %fp + 0x44 ]
    9d2c:	f2 27 a0 48 	st  %i1, [ %fp + 0x48 ]
    9d30:	c2 07 a0 44 	ld  [ %fp + 0x44 ], %g1
    9d34:	c4 07 a0 48 	ld  [ %fp + 0x48 ], %g2
    9d38:	c1 00 40 00 	ld  [ %g1 ], %f0
    9d3c:	85 a0 19 00 	fitod  %f0, %f2
    9d40:	c5 38 80 00 	std  %f2, [ %g2 ]
    9d44:	81 e8 00 00 	restore 
    9d48:	81 c3 e0 08 	retl 
    9d4c:	01 00 00 00 	nop 

00009d50 <__ajit_fitos__>:
    9d50:	9d e3 bf a0 	save  %sp, -96, %sp
    9d54:	f0 27 a0 44 	st  %i0, [ %fp + 0x44 ]
    9d58:	f2 27 a0 48 	st  %i1, [ %fp + 0x48 ]
    9d5c:	c2 07 a0 44 	ld  [ %fp + 0x44 ], %g1
    9d60:	c4 07 a0 48 	ld  [ %fp + 0x48 ], %g2
    9d64:	c1 00 40 00 	ld  [ %g1 ], %f0
    9d68:	83 a0 18 80 	fitos  %f0, %f1
    9d6c:	c3 20 80 00 	st  %f1, [ %g2 ]
    9d70:	81 e8 00 00 	restore 
    9d74:	81 c3 e0 08 	retl 
    9d78:	01 00 00 00 	nop 

00009d7c <__ajit_fdtoi__>:
    9d7c:	9d e3 bf a0 	save  %sp, -96, %sp
    9d80:	f0 27 a0 44 	st  %i0, [ %fp + 0x44 ]
    9d84:	f2 27 a0 48 	st  %i1, [ %fp + 0x48 ]
    9d88:	c2 07 a0 44 	ld  [ %fp + 0x44 ], %g1
    9d8c:	c4 07 a0 48 	ld  [ %fp + 0x48 ], %g2
    9d90:	c1 18 40 00 	ldd  [ %g1 ], %f0
    9d94:	85 a0 1a 40 	fdtoi  %f0, %f2
    9d98:	c5 20 80 00 	st  %f2, [ %g2 ]
    9d9c:	81 e8 00 00 	restore 
    9da0:	81 c3 e0 08 	retl 
    9da4:	01 00 00 00 	nop 

00009da8 <__ajit_fstoi__>:
    9da8:	9d e3 bf a0 	save  %sp, -96, %sp
    9dac:	f0 27 a0 44 	st  %i0, [ %fp + 0x44 ]
    9db0:	f2 27 a0 48 	st  %i1, [ %fp + 0x48 ]
    9db4:	c2 07 a0 44 	ld  [ %fp + 0x44 ], %g1
    9db8:	c4 07 a0 48 	ld  [ %fp + 0x48 ], %g2
    9dbc:	c1 00 40 00 	ld  [ %g1 ], %f0
    9dc0:	83 a0 1a 20 	fstoi  %f0, %f1
    9dc4:	c3 20 80 00 	st  %f1, [ %g2 ]
    9dc8:	81 e8 00 00 	restore 
    9dcc:	81 c3 e0 08 	retl 
    9dd0:	01 00 00 00 	nop 

00009dd4 <__cortos_enable_serial>:
    9dd4:	9d e3 bf a0 	save  %sp, -96, %sp
    9dd8:	90 10 20 01 	mov  1, %o0
    9ddc:	7f ff fc 42 	call  8ee4 <__ajit_write_serial_control_register__>
    9de0:	01 00 00 00 	nop 
    9de4:	81 e8 00 00 	restore 
    9de8:	81 c3 e0 08 	retl 
    9dec:	01 00 00 00 	nop 

00009df0 <cortos_printf>:
    9df0:	9d e3 bb 90 	save  %sp, -1136, %sp
    9df4:	f2 27 a0 48 	st  %i1, [ %fp + 0x48 ]
    9df8:	f4 27 a0 4c 	st  %i2, [ %fp + 0x4c ]
    9dfc:	f6 27 a0 50 	st  %i3, [ %fp + 0x50 ]
    9e00:	f8 27 a0 54 	st  %i4, [ %fp + 0x54 ]
    9e04:	fa 27 a0 58 	st  %i5, [ %fp + 0x58 ]
    9e08:	f0 27 a0 44 	st  %i0, [ %fp + 0x44 ]
    9e0c:	c0 27 bf f8 	clr  [ %fp + -8 ]
    9e10:	90 10 20 01 	mov  1, %o0
    9e14:	7f ff fa ec 	call  89c4 <__cortos_lock_acquire_buzy>
    9e18:	01 00 00 00 	nop 
    9e1c:	82 07 a0 48 	add  %fp, 0x48, %g1
    9e20:	c2 27 bb f4 	st  %g1, [ %fp + -1036 ]
    9e24:	c2 07 bb f4 	ld  [ %fp + -1036 ], %g1
    9e28:	84 07 bb f8 	add  %fp, -1032, %g2
    9e2c:	90 10 00 02 	mov  %g2, %o0
    9e30:	d2 07 a0 44 	ld  [ %fp + 0x44 ], %o1
    9e34:	94 10 00 01 	mov  %g1, %o2
    9e38:	40 00 04 3a 	call  af20 <ee_vsprintf>
    9e3c:	01 00 00 00 	nop 
    9e40:	82 07 bb f8 	add  %fp, -1032, %g1
    9e44:	c2 27 bf fc 	st  %g1, [ %fp + -4 ]
    9e48:	10 80 00 0f 	b  9e84 <cortos_printf+0x94>
    9e4c:	01 00 00 00 	nop 
    9e50:	c2 07 bf fc 	ld  [ %fp + -4 ], %g1
    9e54:	c2 08 40 00 	ldub  [ %g1 ], %g1
    9e58:	83 28 60 18 	sll  %g1, 0x18, %g1
    9e5c:	83 38 60 18 	sra  %g1, 0x18, %g1
    9e60:	90 10 00 01 	mov  %g1, %o0
    9e64:	40 00 06 3a 	call  b74c <uart_send_char>
    9e68:	01 00 00 00 	nop 
    9e6c:	c2 07 bf f8 	ld  [ %fp + -8 ], %g1
    9e70:	82 00 60 01 	inc  %g1
    9e74:	c2 27 bf f8 	st  %g1, [ %fp + -8 ]
    9e78:	c2 07 bf fc 	ld  [ %fp + -4 ], %g1
    9e7c:	82 00 60 01 	inc  %g1
    9e80:	c2 27 bf fc 	st  %g1, [ %fp + -4 ]
    9e84:	c2 07 bf fc 	ld  [ %fp + -4 ], %g1
    9e88:	c2 08 40 00 	ldub  [ %g1 ], %g1
    9e8c:	83 28 60 18 	sll  %g1, 0x18, %g1
    9e90:	83 38 60 18 	sra  %g1, 0x18, %g1
    9e94:	80 a0 60 00 	cmp  %g1, 0
    9e98:	12 bf ff ee 	bne  9e50 <cortos_printf+0x60>
    9e9c:	01 00 00 00 	nop 
    9ea0:	90 10 20 01 	mov  1, %o0	! 1 <_start+0x1>
    9ea4:	7f ff fa e6 	call  8a3c <__cortos_lock_release>
    9ea8:	01 00 00 00 	nop 
    9eac:	c2 07 bf f8 	ld  [ %fp + -8 ], %g1
    9eb0:	b0 10 00 01 	mov  %g1, %i0
    9eb4:	81 e8 00 00 	restore 
    9eb8:	81 c3 e0 08 	retl 
    9ebc:	01 00 00 00 	nop 

00009ec0 <__cortos_log_printf>:
    9ec0:	9d e3 bb 70 	save  %sp, -1168, %sp
    9ec4:	fa 27 a0 58 	st  %i5, [ %fp + 0x58 ]
    9ec8:	f0 27 a0 44 	st  %i0, [ %fp + 0x44 ]
    9ecc:	f2 27 a0 48 	st  %i1, [ %fp + 0x48 ]
    9ed0:	f4 27 a0 4c 	st  %i2, [ %fp + 0x4c ]
    9ed4:	f6 27 a0 50 	st  %i3, [ %fp + 0x50 ]
    9ed8:	f8 27 a0 54 	st  %i4, [ %fp + 0x54 ]
    9edc:	c0 27 bf f8 	clr  [ %fp + -8 ]
    9ee0:	a3 47 40 00 	rd  %asr29, %l1
    9ee4:	ba 10 00 11 	mov  %l1, %i5
    9ee8:	fa 27 bf f4 	st  %i5, [ %fp + -12 ]
    9eec:	90 10 20 01 	mov  1, %o0
    9ef0:	7f ff fa b5 	call  89c4 <__cortos_lock_acquire_buzy>
    9ef4:	01 00 00 00 	nop 
    9ef8:	40 00 00 54 	call  a048 <cortos_get_clock_time>
    9efc:	01 00 00 00 	nop 
    9f00:	84 10 00 08 	mov  %o0, %g2
    9f04:	86 10 00 09 	mov  %o1, %g3
    9f08:	c4 3f bb e0 	std  %g2, [ %fp + -1056 ]
    9f0c:	82 07 bb e0 	add  %fp, -1056, %g1
    9f10:	c2 27 bf f0 	st  %g1, [ %fp + -16 ]
    9f14:	c4 07 bf f4 	ld  [ %fp + -12 ], %g2
    9f18:	03 00 00 3f 	sethi  %hi(0xfc00), %g1
    9f1c:	82 10 63 00 	or  %g1, 0x300, %g1	! ff00 <SW_trap_0xf0>
    9f20:	84 08 80 01 	and  %g2, %g1, %g2
    9f24:	c2 07 bf f4 	ld  [ %fp + -12 ], %g1
    9f28:	82 08 60 ff 	and  %g1, 0xff, %g1
    9f2c:	c6 07 bf f0 	ld  [ %fp + -16 ], %g3
    9f30:	c8 00 c0 00 	ld  [ %g3 ], %g4
    9f34:	c6 07 bf f0 	ld  [ %fp + -16 ], %g3
    9f38:	86 00 e0 04 	add  %g3, 4, %g3
    9f3c:	c6 00 c0 00 	ld  [ %g3 ], %g3
    9f40:	fa 07 a0 4c 	ld  [ %fp + 0x4c ], %i5
    9f44:	fa 23 a0 5c 	st  %i5, [ %sp + 0x5c ]
    9f48:	c8 23 a0 60 	st  %g4, [ %sp + 0x60 ]
    9f4c:	c6 23 a0 64 	st  %g3, [ %sp + 0x64 ]
    9f50:	07 00 00 42 	sethi  %hi(0x10800), %g3
    9f54:	90 10 e0 00 	mov  %g3, %o0	! 10800 <PAGE_TABLE_BASE+0x400>
    9f58:	d2 07 a0 44 	ld  [ %fp + 0x44 ], %o1
    9f5c:	94 10 00 02 	mov  %g2, %o2
    9f60:	96 10 00 01 	mov  %g1, %o3
    9f64:	d8 07 a0 48 	ld  [ %fp + 0x48 ], %o4
    9f68:	da 07 a0 50 	ld  [ %fp + 0x50 ], %o5
    9f6c:	40 00 06 1f 	call  b7e8 <ee_printf>
    9f70:	01 00 00 00 	nop 
    9f74:	82 10 00 08 	mov  %o0, %g1
    9f78:	c4 07 bf f8 	ld  [ %fp + -8 ], %g2
    9f7c:	82 00 80 01 	add  %g2, %g1, %g1
    9f80:	c2 27 bf f8 	st  %g1, [ %fp + -8 ]
    9f84:	82 07 a0 58 	add  %fp, 0x58, %g1
    9f88:	c2 27 bb ec 	st  %g1, [ %fp + -1044 ]
    9f8c:	c2 07 bb ec 	ld  [ %fp + -1044 ], %g1
    9f90:	84 07 bb f0 	add  %fp, -1040, %g2
    9f94:	90 10 00 02 	mov  %g2, %o0
    9f98:	d2 07 a0 54 	ld  [ %fp + 0x54 ], %o1
    9f9c:	94 10 00 01 	mov  %g1, %o2
    9fa0:	40 00 03 e0 	call  af20 <ee_vsprintf>
    9fa4:	01 00 00 00 	nop 
    9fa8:	82 07 bb f0 	add  %fp, -1040, %g1
    9fac:	c2 27 bf fc 	st  %g1, [ %fp + -4 ]
    9fb0:	10 80 00 0f 	b  9fec <__cortos_log_printf+0x12c>
    9fb4:	01 00 00 00 	nop 
    9fb8:	c2 07 bf fc 	ld  [ %fp + -4 ], %g1
    9fbc:	c2 08 40 00 	ldub  [ %g1 ], %g1
    9fc0:	83 28 60 18 	sll  %g1, 0x18, %g1
    9fc4:	83 38 60 18 	sra  %g1, 0x18, %g1
    9fc8:	90 10 00 01 	mov  %g1, %o0
    9fcc:	40 00 05 e0 	call  b74c <uart_send_char>
    9fd0:	01 00 00 00 	nop 
    9fd4:	c2 07 bf f8 	ld  [ %fp + -8 ], %g1
    9fd8:	82 00 60 01 	inc  %g1
    9fdc:	c2 27 bf f8 	st  %g1, [ %fp + -8 ]
    9fe0:	c2 07 bf fc 	ld  [ %fp + -4 ], %g1
    9fe4:	82 00 60 01 	inc  %g1
    9fe8:	c2 27 bf fc 	st  %g1, [ %fp + -4 ]
    9fec:	c2 07 bf fc 	ld  [ %fp + -4 ], %g1
    9ff0:	c2 08 40 00 	ldub  [ %g1 ], %g1
    9ff4:	83 28 60 18 	sll  %g1, 0x18, %g1
    9ff8:	83 38 60 18 	sra  %g1, 0x18, %g1
    9ffc:	80 a0 60 00 	cmp  %g1, 0
    a000:	12 bf ff ee 	bne  9fb8 <__cortos_log_printf+0xf8>
    a004:	01 00 00 00 	nop 
    a008:	03 00 00 42 	sethi  %hi(0x10800), %g1
    a00c:	90 10 60 38 	or  %g1, 0x38, %o0	! 10838 <PAGE_TABLE_BASE+0x438>
    a010:	40 00 05 f6 	call  b7e8 <ee_printf>
    a014:	01 00 00 00 	nop 
    a018:	82 10 00 08 	mov  %o0, %g1
    a01c:	c4 07 bf f8 	ld  [ %fp + -8 ], %g2
    a020:	82 00 80 01 	add  %g2, %g1, %g1
    a024:	c2 27 bf f8 	st  %g1, [ %fp + -8 ]
    a028:	90 10 20 01 	mov  1, %o0
    a02c:	7f ff fa 84 	call  8a3c <__cortos_lock_release>
    a030:	01 00 00 00 	nop 
    a034:	c2 07 bf f8 	ld  [ %fp + -8 ], %g1
    a038:	b0 10 00 01 	mov  %g1, %i0
    a03c:	81 e8 00 00 	restore 
    a040:	81 c3 e0 08 	retl 
    a044:	01 00 00 00 	nop 

0000a048 <cortos_get_clock_time>:
    a048:	9d e3 bf a0 	save  %sp, -96, %sp
    a04c:	7f ff fa f8 	call  8c2c <__ajit_get_clock_time>
    a050:	01 00 00 00 	nop 
    a054:	84 10 00 08 	mov  %o0, %g2
    a058:	86 10 00 09 	mov  %o1, %g3
    a05c:	b0 10 00 02 	mov  %g2, %i0
    a060:	b2 10 00 03 	mov  %g3, %i1
    a064:	81 e8 00 00 	restore 
    a068:	81 c3 e0 08 	retl 
    a06c:	01 00 00 00 	nop 

0000a070 <cortos_sleep>:
    a070:	9d e3 bf a0 	save  %sp, -96, %sp
    a074:	f0 27 a0 44 	st  %i0, [ %fp + 0x44 ]
    a078:	d0 07 a0 44 	ld  [ %fp + 0x44 ], %o0
    a07c:	7f ff fb 08 	call  8c9c <__ajit_sleep__>
    a080:	01 00 00 00 	nop 
    a084:	81 e8 00 00 	restore 
    a088:	81 c3 e0 08 	retl 
    a08c:	01 00 00 00 	nop 

0000a090 <cortos_reserveLockVar>:
    a090:	9d e3 bf 98 	save  %sp, -104, %sp
    a094:	82 10 3f ff 	mov  -1, %g1
    a098:	c2 27 bf f8 	st  %g1, [ %fp + -8 ]
    a09c:	90 10 20 03 	mov  3, %o0
    a0a0:	7f ff fa 49 	call  89c4 <__cortos_lock_acquire_buzy>
    a0a4:	01 00 00 00 	nop 
    a0a8:	c0 27 bf fc 	clr  [ %fp + -4 ]
    a0ac:	10 80 00 19 	b  a110 <cortos_reserveLockVar+0x80>
    a0b0:	01 00 00 00 	nop 
    a0b4:	03 00 00 42 	sethi  %hi(0x10800), %g1
    a0b8:	84 10 62 38 	or  %g1, 0x238, %g2	! 10a38 <syncLockVars>
    a0bc:	c2 07 bf fc 	ld  [ %fp + -4 ], %g1
    a0c0:	82 00 80 01 	add  %g2, %g1, %g1
    a0c4:	c2 08 40 00 	ldub  [ %g1 ], %g1
    a0c8:	83 28 60 18 	sll  %g1, 0x18, %g1
    a0cc:	83 38 60 18 	sra  %g1, 0x18, %g1
    a0d0:	80 a0 60 00 	cmp  %g1, 0
    a0d4:	12 80 00 0c 	bne  a104 <cortos_reserveLockVar+0x74>
    a0d8:	01 00 00 00 	nop 
    a0dc:	03 00 00 42 	sethi  %hi(0x10800), %g1
    a0e0:	84 10 62 38 	or  %g1, 0x238, %g2	! 10a38 <syncLockVars>
    a0e4:	c2 07 bf fc 	ld  [ %fp + -4 ], %g1
    a0e8:	82 00 80 01 	add  %g2, %g1, %g1
    a0ec:	84 10 20 01 	mov  1, %g2
    a0f0:	c4 28 40 00 	stb  %g2, [ %g1 ]
    a0f4:	c2 07 bf fc 	ld  [ %fp + -4 ], %g1
    a0f8:	c2 27 bf f8 	st  %g1, [ %fp + -8 ]
    a0fc:	10 80 00 09 	b  a120 <cortos_reserveLockVar+0x90>
    a100:	01 00 00 00 	nop 
    a104:	c2 07 bf fc 	ld  [ %fp + -4 ], %g1
    a108:	82 00 60 01 	inc  %g1
    a10c:	c2 27 bf fc 	st  %g1, [ %fp + -4 ]
    a110:	c2 07 bf fc 	ld  [ %fp + -4 ], %g1
    a114:	80 a0 60 1f 	cmp  %g1, 0x1f
    a118:	04 bf ff e7 	ble  a0b4 <cortos_reserveLockVar+0x24>
    a11c:	01 00 00 00 	nop 
    a120:	90 10 20 03 	mov  3, %o0	! 3 <_start+0x3>
    a124:	7f ff fa 46 	call  8a3c <__cortos_lock_release>
    a128:	01 00 00 00 	nop 
    a12c:	c2 07 bf f8 	ld  [ %fp + -8 ], %g1
    a130:	b0 10 00 01 	mov  %g1, %i0
    a134:	81 e8 00 00 	restore 
    a138:	81 c3 e0 08 	retl 
    a13c:	01 00 00 00 	nop 

0000a140 <cortos_freeLockVar>:
    a140:	9d e3 bf a0 	save  %sp, -96, %sp
    a144:	f0 27 a0 44 	st  %i0, [ %fp + 0x44 ]
    a148:	c2 07 a0 44 	ld  [ %fp + 0x44 ], %g1
    a14c:	80 a0 60 00 	cmp  %g1, 0
    a150:	06 80 00 11 	bl  a194 <cortos_freeLockVar+0x54>
    a154:	01 00 00 00 	nop 
    a158:	c2 07 a0 44 	ld  [ %fp + 0x44 ], %g1
    a15c:	80 a0 60 1f 	cmp  %g1, 0x1f
    a160:	14 80 00 0d 	bg  a194 <cortos_freeLockVar+0x54>
    a164:	01 00 00 00 	nop 
    a168:	90 10 20 03 	mov  3, %o0	! 3 <_start+0x3>
    a16c:	7f ff fa 16 	call  89c4 <__cortos_lock_acquire_buzy>
    a170:	01 00 00 00 	nop 
    a174:	03 00 00 42 	sethi  %hi(0x10800), %g1
    a178:	84 10 62 38 	or  %g1, 0x238, %g2	! 10a38 <syncLockVars>
    a17c:	c2 07 a0 44 	ld  [ %fp + 0x44 ], %g1
    a180:	82 00 80 01 	add  %g2, %g1, %g1
    a184:	c0 28 40 00 	clrb  [ %g1 ]
    a188:	90 10 20 03 	mov  3, %o0
    a18c:	7f ff fa 2c 	call  8a3c <__cortos_lock_release>
    a190:	01 00 00 00 	nop 
    a194:	81 e8 00 00 	restore 
    a198:	81 c3 e0 08 	retl 
    a19c:	01 00 00 00 	nop 
    a1a0:	00 00 b4 fc 	unimp  0xb4fc
    a1a4:	00 00 b5 d0 	unimp  0xb5d0
    a1a8:	00 00 b5 d0 	unimp  0xb5d0
    a1ac:	00 00 b5 d0 	unimp  0xb5d0
    a1b0:	00 00 b5 d0 	unimp  0xb5d0
    a1b4:	00 00 b5 d0 	unimp  0xb5d0
    a1b8:	00 00 b5 d0 	unimp  0xb5d0
    a1bc:	00 00 b5 d0 	unimp  0xb5d0
    a1c0:	00 00 b5 d0 	unimp  0xb5d0
    a1c4:	00 00 b5 d0 	unimp  0xb5d0
    a1c8:	00 00 b5 d0 	unimp  0xb5d0
    a1cc:	00 00 b5 d0 	unimp  0xb5d0
    a1d0:	00 00 b5 d0 	unimp  0xb5d0
    a1d4:	00 00 b5 d0 	unimp  0xb5d0
    a1d8:	00 00 b5 d0 	unimp  0xb5d0
    a1dc:	00 00 b5 d0 	unimp  0xb5d0
    a1e0:	00 00 b5 d0 	unimp  0xb5d0
    a1e4:	00 00 b5 d0 	unimp  0xb5d0
    a1e8:	00 00 b5 d0 	unimp  0xb5d0
    a1ec:	00 00 b5 d0 	unimp  0xb5d0
    a1f0:	00 00 b5 d0 	unimp  0xb5d0
    a1f4:	00 00 b5 d0 	unimp  0xb5d0
    a1f8:	00 00 b5 d0 	unimp  0xb5d0
    a1fc:	00 00 b5 a0 	unimp  0xb5a0
    a200:	00 00 b5 d0 	unimp  0xb5d0
    a204:	00 00 b5 d0 	unimp  0xb5d0
    a208:	00 00 b5 d0 	unimp  0xb5d0
    a20c:	00 00 b5 d0 	unimp  0xb5d0
    a210:	00 00 b5 d0 	unimp  0xb5d0
    a214:	00 00 b5 d0 	unimp  0xb5d0
    a218:	00 00 b5 d0 	unimp  0xb5d0
    a21c:	00 00 b5 d0 	unimp  0xb5d0
    a220:	00 00 b5 08 	unimp  0xb508
    a224:	00 00 b5 d0 	unimp  0xb5d0
    a228:	00 00 b2 68 	unimp  0xb268
    a22c:	00 00 b5 bc 	unimp  0xb5bc
    a230:	00 00 b5 d0 	unimp  0xb5d0
    a234:	00 00 b5 d0 	unimp  0xb5d0
    a238:	00 00 b5 d0 	unimp  0xb5d0
    a23c:	00 00 b5 d0 	unimp  0xb5d0
    a240:	00 00 b5 bc 	unimp  0xb5bc
    a244:	00 00 b5 d0 	unimp  0xb5d0
    a248:	00 00 b5 d0 	unimp  0xb5d0
    a24c:	00 00 b5 d0 	unimp  0xb5d0
    a250:	00 00 b5 d0 	unimp  0xb5d0
    a254:	00 00 b5 d0 	unimp  0xb5d0
    a258:	00 00 b5 90 	unimp  0xb590
    a25c:	00 00 b4 98 	unimp  0xb498
    a260:	00 00 b5 d0 	unimp  0xb5d0
    a264:	00 00 b5 d0 	unimp  0xb5d0
    a268:	00 00 b3 28 	unimp  0xb328
    a26c:	00 00 b5 d0 	unimp  0xb5d0
    a270:	00 00 b6 58 	unimp  0xb658
    a274:	00 00 b5 d0 	unimp  0xb5d0
    a278:	00 00 b5 d0 	unimp  0xb5d0
    a27c:	00 00 b5 ac 	unimp  0xb5ac
    a280:	00 00 af f0 	unimp  0xaff0
    a284:	00 00 b0 2c 	unimp  0xb02c
    a288:	00 00 b0 2c 	unimp  0xb02c
    a28c:	00 00 b0 04 	unimp  0xb004
    a290:	00 00 b0 2c 	unimp  0xb02c
    a294:	00 00 b0 2c 	unimp  0xb02c
    a298:	00 00 b0 2c 	unimp  0xb02c
    a29c:	00 00 b0 2c 	unimp  0xb02c
    a2a0:	00 00 b0 2c 	unimp  0xb02c
    a2a4:	00 00 b0 2c 	unimp  0xb02c
    a2a8:	00 00 b0 2c 	unimp  0xb02c
    a2ac:	00 00 af dc 	unimp  0xafdc
    a2b0:	00 00 b0 2c 	unimp  0xb02c
    a2b4:	00 00 af c8 	unimp  0xafc8
    a2b8:	00 00 b0 2c 	unimp  0xb02c
    a2bc:	00 00 b0 2c 	unimp  0xb02c
    a2c0:	00 00 b0 18 	unimp  0xb018

0000a2c4 <strnlen>:
    a2c4:	9d e3 bf 98 	save  %sp, -104, %sp
    a2c8:	f0 27 a0 44 	st  %i0, [ %fp + 0x44 ]
    a2cc:	f2 27 a0 48 	st  %i1, [ %fp + 0x48 ]
    a2d0:	c2 07 a0 44 	ld  [ %fp + 0x44 ], %g1
    a2d4:	c2 27 bf fc 	st  %g1, [ %fp + -4 ]
    a2d8:	10 80 00 05 	b  a2ec <strnlen+0x28>
    a2dc:	01 00 00 00 	nop 
    a2e0:	c2 07 bf fc 	ld  [ %fp + -4 ], %g1
    a2e4:	82 00 60 01 	inc  %g1
    a2e8:	c2 27 bf fc 	st  %g1, [ %fp + -4 ]
    a2ec:	c2 07 bf fc 	ld  [ %fp + -4 ], %g1
    a2f0:	c2 08 40 00 	ldub  [ %g1 ], %g1
    a2f4:	83 28 60 18 	sll  %g1, 0x18, %g1
    a2f8:	83 38 60 18 	sra  %g1, 0x18, %g1
    a2fc:	80 a0 60 00 	cmp  %g1, 0
    a300:	02 80 00 0d 	be  a334 <strnlen+0x70>
    a304:	01 00 00 00 	nop 
    a308:	c2 07 a0 48 	ld  [ %fp + 0x48 ], %g1
    a30c:	82 18 60 00 	xor  %g1, 0, %g1
    a310:	80 a0 00 01 	cmp  %g0, %g1
    a314:	82 40 20 00 	addx  %g0, 0, %g1
    a318:	c4 07 a0 48 	ld  [ %fp + 0x48 ], %g2
    a31c:	84 00 bf ff 	add  %g2, -1, %g2
    a320:	c4 27 a0 48 	st  %g2, [ %fp + 0x48 ]
    a324:	82 08 60 ff 	and  %g1, 0xff, %g1
    a328:	80 a0 60 00 	cmp  %g1, 0
    a32c:	12 bf ff ed 	bne  a2e0 <strnlen+0x1c>
    a330:	01 00 00 00 	nop 
    a334:	c4 07 bf fc 	ld  [ %fp + -4 ], %g2
    a338:	c2 07 a0 44 	ld  [ %fp + 0x44 ], %g1
    a33c:	82 20 80 01 	sub  %g2, %g1, %g1
    a340:	b0 10 00 01 	mov  %g1, %i0
    a344:	81 e8 00 00 	restore 
    a348:	81 c3 e0 08 	retl 
    a34c:	01 00 00 00 	nop 

0000a350 <skip_atoi>:
    a350:	9d e3 bf 98 	save  %sp, -104, %sp
    a354:	f0 27 a0 44 	st  %i0, [ %fp + 0x44 ]
    a358:	c0 27 bf fc 	clr  [ %fp + -4 ]
    a35c:	10 80 00 11 	b  a3a0 <skip_atoi+0x50>
    a360:	01 00 00 00 	nop 
    a364:	c2 07 bf fc 	ld  [ %fp + -4 ], %g1
    a368:	82 00 40 01 	add  %g1, %g1, %g1
    a36c:	85 28 60 02 	sll  %g1, 2, %g2
    a370:	86 00 40 02 	add  %g1, %g2, %g3
    a374:	c2 07 a0 44 	ld  [ %fp + 0x44 ], %g1
    a378:	c2 00 40 00 	ld  [ %g1 ], %g1
    a37c:	c4 08 40 00 	ldub  [ %g1 ], %g2
    a380:	85 28 a0 18 	sll  %g2, 0x18, %g2
    a384:	85 38 a0 18 	sra  %g2, 0x18, %g2
    a388:	84 00 c0 02 	add  %g3, %g2, %g2
    a38c:	84 00 bf d0 	add  %g2, -48, %g2
    a390:	c4 27 bf fc 	st  %g2, [ %fp + -4 ]
    a394:	84 00 60 01 	add  %g1, 1, %g2
    a398:	c2 07 a0 44 	ld  [ %fp + 0x44 ], %g1
    a39c:	c4 20 40 00 	st  %g2, [ %g1 ]
    a3a0:	c2 07 a0 44 	ld  [ %fp + 0x44 ], %g1
    a3a4:	c2 00 40 00 	ld  [ %g1 ], %g1
    a3a8:	c2 08 40 00 	ldub  [ %g1 ], %g1
    a3ac:	83 28 60 18 	sll  %g1, 0x18, %g1
    a3b0:	83 38 60 18 	sra  %g1, 0x18, %g1
    a3b4:	80 a0 60 2f 	cmp  %g1, 0x2f
    a3b8:	04 80 00 0a 	ble  a3e0 <skip_atoi+0x90>
    a3bc:	01 00 00 00 	nop 
    a3c0:	c2 07 a0 44 	ld  [ %fp + 0x44 ], %g1
    a3c4:	c2 00 40 00 	ld  [ %g1 ], %g1
    a3c8:	c2 08 40 00 	ldub  [ %g1 ], %g1
    a3cc:	83 28 60 18 	sll  %g1, 0x18, %g1
    a3d0:	83 38 60 18 	sra  %g1, 0x18, %g1
    a3d4:	80 a0 60 39 	cmp  %g1, 0x39
    a3d8:	04 bf ff e3 	ble  a364 <skip_atoi+0x14>
    a3dc:	01 00 00 00 	nop 
    a3e0:	c2 07 bf fc 	ld  [ %fp + -4 ], %g1
    a3e4:	b0 10 00 01 	mov  %g1, %i0
    a3e8:	81 e8 00 00 	restore 
    a3ec:	81 c3 e0 08 	retl 
    a3f0:	01 00 00 00 	nop 

0000a3f4 <number>:
    a3f4:	9d e3 bf 50 	save  %sp, -176, %sp
    a3f8:	f0 27 a0 44 	st  %i0, [ %fp + 0x44 ]
    a3fc:	f2 27 a0 48 	st  %i1, [ %fp + 0x48 ]
    a400:	f4 27 a0 4c 	st  %i2, [ %fp + 0x4c ]
    a404:	f6 27 a0 50 	st  %i3, [ %fp + 0x50 ]
    a408:	f8 27 a0 54 	st  %i4, [ %fp + 0x54 ]
    a40c:	fa 27 a0 58 	st  %i5, [ %fp + 0x58 ]
    a410:	03 00 00 42 	sethi  %hi(0x10800), %g1
    a414:	82 10 61 40 	or  %g1, 0x140, %g1	! 10940 <digits>
    a418:	c2 00 40 00 	ld  [ %g1 ], %g1
    a41c:	c2 27 bf f8 	st  %g1, [ %fp + -8 ]
    a420:	c2 07 a0 58 	ld  [ %fp + 0x58 ], %g1
    a424:	82 08 60 40 	and  %g1, 0x40, %g1
    a428:	80 a0 60 00 	cmp  %g1, 0
    a42c:	02 80 00 06 	be  a444 <number+0x50>
    a430:	01 00 00 00 	nop 
    a434:	03 00 00 42 	sethi  %hi(0x10800), %g1
    a438:	82 10 61 44 	or  %g1, 0x144, %g1	! 10944 <upper_digits>
    a43c:	c2 00 40 00 	ld  [ %g1 ], %g1
    a440:	c2 27 bf f8 	st  %g1, [ %fp + -8 ]
    a444:	c2 07 a0 58 	ld  [ %fp + 0x58 ], %g1
    a448:	82 08 60 10 	and  %g1, 0x10, %g1
    a44c:	80 a0 60 00 	cmp  %g1, 0
    a450:	02 80 00 05 	be  a464 <number+0x70>
    a454:	01 00 00 00 	nop 
    a458:	c2 07 a0 58 	ld  [ %fp + 0x58 ], %g1
    a45c:	82 08 7f fe 	and  %g1, -2, %g1
    a460:	c2 27 a0 58 	st  %g1, [ %fp + 0x58 ]
    a464:	c2 07 a0 4c 	ld  [ %fp + 0x4c ], %g1
    a468:	80 a0 60 01 	cmp  %g1, 1
    a46c:	04 80 00 06 	ble  a484 <number+0x90>
    a470:	01 00 00 00 	nop 
    a474:	c2 07 a0 4c 	ld  [ %fp + 0x4c ], %g1
    a478:	80 a0 60 24 	cmp  %g1, 0x24
    a47c:	04 80 00 05 	ble  a490 <number+0x9c>
    a480:	01 00 00 00 	nop 
    a484:	82 10 20 00 	clr  %g1	! 0 <_start>
    a488:	10 80 01 28 	b  a928 <number+0x534>
    a48c:	01 00 00 00 	nop 
    a490:	c2 07 a0 58 	ld  [ %fp + 0x58 ], %g1
    a494:	82 08 60 01 	and  %g1, 1, %g1
    a498:	80 a0 60 00 	cmp  %g1, 0
    a49c:	02 80 00 05 	be  a4b0 <number+0xbc>
    a4a0:	01 00 00 00 	nop 
    a4a4:	82 10 20 30 	mov  0x30, %g1	! 30 <WIMSET+0x10>
    a4a8:	10 80 00 03 	b  a4b4 <number+0xc0>
    a4ac:	01 00 00 00 	nop 
    a4b0:	82 10 20 20 	mov  0x20, %g1	! 20 <WIMSET>
    a4b4:	c2 2f bf f3 	stb  %g1, [ %fp + -13 ]
    a4b8:	c0 2f bf ff 	clrb  [ %fp + -1 ]
    a4bc:	c2 07 a0 58 	ld  [ %fp + 0x58 ], %g1
    a4c0:	82 08 60 02 	and  %g1, 2, %g1
    a4c4:	80 a0 60 00 	cmp  %g1, 0
    a4c8:	02 80 00 26 	be  a560 <number+0x16c>
    a4cc:	01 00 00 00 	nop 
    a4d0:	c2 07 a0 48 	ld  [ %fp + 0x48 ], %g1
    a4d4:	80 a0 60 00 	cmp  %g1, 0
    a4d8:	16 80 00 0c 	bge  a508 <number+0x114>
    a4dc:	01 00 00 00 	nop 
    a4e0:	82 10 20 2d 	mov  0x2d, %g1	! 2d <WIMSET+0xd>
    a4e4:	c2 2f bf ff 	stb  %g1, [ %fp + -1 ]
    a4e8:	c2 07 a0 48 	ld  [ %fp + 0x48 ], %g1
    a4ec:	82 20 00 01 	neg  %g1
    a4f0:	c2 27 a0 48 	st  %g1, [ %fp + 0x48 ]
    a4f4:	c2 07 a0 50 	ld  [ %fp + 0x50 ], %g1
    a4f8:	82 00 7f ff 	add  %g1, -1, %g1
    a4fc:	c2 27 a0 50 	st  %g1, [ %fp + 0x50 ]
    a500:	10 80 00 18 	b  a560 <number+0x16c>
    a504:	01 00 00 00 	nop 
    a508:	c2 07 a0 58 	ld  [ %fp + 0x58 ], %g1
    a50c:	82 08 60 04 	and  %g1, 4, %g1
    a510:	80 a0 60 00 	cmp  %g1, 0
    a514:	02 80 00 09 	be  a538 <number+0x144>
    a518:	01 00 00 00 	nop 
    a51c:	82 10 20 2b 	mov  0x2b, %g1	! 2b <WIMSET+0xb>
    a520:	c2 2f bf ff 	stb  %g1, [ %fp + -1 ]
    a524:	c2 07 a0 50 	ld  [ %fp + 0x50 ], %g1
    a528:	82 00 7f ff 	add  %g1, -1, %g1
    a52c:	c2 27 a0 50 	st  %g1, [ %fp + 0x50 ]
    a530:	10 80 00 0c 	b  a560 <number+0x16c>
    a534:	01 00 00 00 	nop 
    a538:	c2 07 a0 58 	ld  [ %fp + 0x58 ], %g1
    a53c:	82 08 60 08 	and  %g1, 8, %g1
    a540:	80 a0 60 00 	cmp  %g1, 0
    a544:	02 80 00 07 	be  a560 <number+0x16c>
    a548:	01 00 00 00 	nop 
    a54c:	82 10 20 20 	mov  0x20, %g1	! 20 <WIMSET>
    a550:	c2 2f bf ff 	stb  %g1, [ %fp + -1 ]
    a554:	c2 07 a0 50 	ld  [ %fp + 0x50 ], %g1
    a558:	82 00 7f ff 	add  %g1, -1, %g1
    a55c:	c2 27 a0 50 	st  %g1, [ %fp + 0x50 ]
    a560:	c2 07 a0 58 	ld  [ %fp + 0x58 ], %g1
    a564:	82 08 60 20 	and  %g1, 0x20, %g1
    a568:	80 a0 60 00 	cmp  %g1, 0
    a56c:	02 80 00 12 	be  a5b4 <number+0x1c0>
    a570:	01 00 00 00 	nop 
    a574:	c2 07 a0 4c 	ld  [ %fp + 0x4c ], %g1
    a578:	80 a0 60 10 	cmp  %g1, 0x10
    a57c:	12 80 00 07 	bne  a598 <number+0x1a4>
    a580:	01 00 00 00 	nop 
    a584:	c2 07 a0 50 	ld  [ %fp + 0x50 ], %g1
    a588:	82 00 7f fe 	add  %g1, -2, %g1
    a58c:	c2 27 a0 50 	st  %g1, [ %fp + 0x50 ]
    a590:	10 80 00 09 	b  a5b4 <number+0x1c0>
    a594:	01 00 00 00 	nop 
    a598:	c2 07 a0 4c 	ld  [ %fp + 0x4c ], %g1
    a59c:	80 a0 60 08 	cmp  %g1, 8
    a5a0:	12 80 00 05 	bne  a5b4 <number+0x1c0>
    a5a4:	01 00 00 00 	nop 
    a5a8:	c2 07 a0 50 	ld  [ %fp + 0x50 ], %g1
    a5ac:	82 00 7f ff 	add  %g1, -1, %g1
    a5b0:	c2 27 a0 50 	st  %g1, [ %fp + 0x50 ]
    a5b4:	c0 27 bf f4 	clr  [ %fp + -12 ]
    a5b8:	c2 07 a0 48 	ld  [ %fp + 0x48 ], %g1
    a5bc:	80 a0 60 00 	cmp  %g1, 0
    a5c0:	12 80 00 25 	bne  a654 <number+0x260>
    a5c4:	01 00 00 00 	nop 
    a5c8:	c2 07 bf f4 	ld  [ %fp + -12 ], %g1
    a5cc:	82 07 80 01 	add  %fp, %g1, %g1
    a5d0:	84 10 20 30 	mov  0x30, %g2
    a5d4:	c4 28 7f b0 	stb  %g2, [ %g1 + -80 ]
    a5d8:	c2 07 bf f4 	ld  [ %fp + -12 ], %g1
    a5dc:	82 00 60 01 	inc  %g1
    a5e0:	c2 27 bf f4 	st  %g1, [ %fp + -12 ]
    a5e4:	10 80 00 20 	b  a664 <number+0x270>
    a5e8:	01 00 00 00 	nop 
    a5ec:	c2 07 a0 48 	ld  [ %fp + 0x48 ], %g1
    a5f0:	c4 07 a0 4c 	ld  [ %fp + 0x4c ], %g2
    a5f4:	81 80 20 00 	mov  %g0, %y
    a5f8:	01 00 00 00 	nop 
    a5fc:	01 00 00 00 	nop 
    a600:	01 00 00 00 	nop 
    a604:	86 70 40 02 	udiv  %g1, %g2, %g3
    a608:	84 58 c0 02 	smul  %g3, %g2, %g2
    a60c:	82 20 40 02 	sub  %g1, %g2, %g1
    a610:	c4 07 bf f8 	ld  [ %fp + -8 ], %g2
    a614:	82 00 80 01 	add  %g2, %g1, %g1
    a618:	c4 08 40 00 	ldub  [ %g1 ], %g2
    a61c:	c2 07 bf f4 	ld  [ %fp + -12 ], %g1
    a620:	82 07 80 01 	add  %fp, %g1, %g1
    a624:	c4 28 7f b0 	stb  %g2, [ %g1 + -80 ]
    a628:	c2 07 bf f4 	ld  [ %fp + -12 ], %g1
    a62c:	82 00 60 01 	inc  %g1
    a630:	c2 27 bf f4 	st  %g1, [ %fp + -12 ]
    a634:	c6 07 a0 48 	ld  [ %fp + 0x48 ], %g3
    a638:	c4 07 a0 4c 	ld  [ %fp + 0x4c ], %g2
    a63c:	81 80 20 00 	mov  %g0, %y
    a640:	01 00 00 00 	nop 
    a644:	01 00 00 00 	nop 
    a648:	01 00 00 00 	nop 
    a64c:	82 70 c0 02 	udiv  %g3, %g2, %g1
    a650:	c2 27 a0 48 	st  %g1, [ %fp + 0x48 ]
    a654:	c2 07 a0 48 	ld  [ %fp + 0x48 ], %g1
    a658:	80 a0 60 00 	cmp  %g1, 0
    a65c:	12 bf ff e4 	bne  a5ec <number+0x1f8>
    a660:	01 00 00 00 	nop 
    a664:	c4 07 bf f4 	ld  [ %fp + -12 ], %g2
    a668:	c2 07 a0 54 	ld  [ %fp + 0x54 ], %g1
    a66c:	80 a0 80 01 	cmp  %g2, %g1
    a670:	04 80 00 04 	ble  a680 <number+0x28c>
    a674:	01 00 00 00 	nop 
    a678:	c2 07 bf f4 	ld  [ %fp + -12 ], %g1
    a67c:	c2 27 a0 54 	st  %g1, [ %fp + 0x54 ]
    a680:	c4 07 a0 50 	ld  [ %fp + 0x50 ], %g2
    a684:	c2 07 a0 54 	ld  [ %fp + 0x54 ], %g1
    a688:	82 20 80 01 	sub  %g2, %g1, %g1
    a68c:	c2 27 a0 50 	st  %g1, [ %fp + 0x50 ]
    a690:	c2 07 a0 58 	ld  [ %fp + 0x58 ], %g1
    a694:	82 08 60 11 	and  %g1, 0x11, %g1
    a698:	80 a0 60 00 	cmp  %g1, 0
    a69c:	12 80 00 16 	bne  a6f4 <number+0x300>
    a6a0:	01 00 00 00 	nop 
    a6a4:	10 80 00 08 	b  a6c4 <number+0x2d0>
    a6a8:	01 00 00 00 	nop 
    a6ac:	c2 07 a0 44 	ld  [ %fp + 0x44 ], %g1
    a6b0:	84 10 20 20 	mov  0x20, %g2
    a6b4:	c4 28 40 00 	stb  %g2, [ %g1 ]
    a6b8:	c2 07 a0 44 	ld  [ %fp + 0x44 ], %g1
    a6bc:	82 00 60 01 	inc  %g1
    a6c0:	c2 27 a0 44 	st  %g1, [ %fp + 0x44 ]
    a6c4:	c2 07 a0 50 	ld  [ %fp + 0x50 ], %g1
    a6c8:	85 38 60 1f 	sra  %g1, 0x1f, %g2
    a6cc:	c2 07 a0 50 	ld  [ %fp + 0x50 ], %g1
    a6d0:	82 20 80 01 	sub  %g2, %g1, %g1
    a6d4:	83 30 60 1f 	srl  %g1, 0x1f, %g1
    a6d8:	c4 07 a0 50 	ld  [ %fp + 0x50 ], %g2
    a6dc:	84 00 bf ff 	add  %g2, -1, %g2
    a6e0:	c4 27 a0 50 	st  %g2, [ %fp + 0x50 ]
    a6e4:	82 08 60 ff 	and  %g1, 0xff, %g1
    a6e8:	80 a0 60 00 	cmp  %g1, 0
    a6ec:	12 bf ff f0 	bne  a6ac <number+0x2b8>
    a6f0:	01 00 00 00 	nop 
    a6f4:	c2 0f bf ff 	ldub  [ %fp + -1 ], %g1
    a6f8:	83 28 60 18 	sll  %g1, 0x18, %g1
    a6fc:	83 38 60 18 	sra  %g1, 0x18, %g1
    a700:	80 a0 60 00 	cmp  %g1, 0
    a704:	02 80 00 08 	be  a724 <number+0x330>
    a708:	01 00 00 00 	nop 
    a70c:	c2 07 a0 44 	ld  [ %fp + 0x44 ], %g1
    a710:	c4 0f bf ff 	ldub  [ %fp + -1 ], %g2
    a714:	c4 28 40 00 	stb  %g2, [ %g1 ]
    a718:	c2 07 a0 44 	ld  [ %fp + 0x44 ], %g1
    a71c:	82 00 60 01 	inc  %g1
    a720:	c2 27 a0 44 	st  %g1, [ %fp + 0x44 ]
    a724:	c2 07 a0 58 	ld  [ %fp + 0x58 ], %g1
    a728:	82 08 60 20 	and  %g1, 0x20, %g1
    a72c:	80 a0 60 00 	cmp  %g1, 0
    a730:	02 80 00 21 	be  a7b4 <number+0x3c0>
    a734:	01 00 00 00 	nop 
    a738:	c2 07 a0 4c 	ld  [ %fp + 0x4c ], %g1
    a73c:	80 a0 60 08 	cmp  %g1, 8
    a740:	12 80 00 0a 	bne  a768 <number+0x374>
    a744:	01 00 00 00 	nop 
    a748:	c2 07 a0 44 	ld  [ %fp + 0x44 ], %g1
    a74c:	84 10 20 30 	mov  0x30, %g2
    a750:	c4 28 40 00 	stb  %g2, [ %g1 ]
    a754:	c2 07 a0 44 	ld  [ %fp + 0x44 ], %g1
    a758:	82 00 60 01 	inc  %g1
    a75c:	c2 27 a0 44 	st  %g1, [ %fp + 0x44 ]
    a760:	10 80 00 15 	b  a7b4 <number+0x3c0>
    a764:	01 00 00 00 	nop 
    a768:	c2 07 a0 4c 	ld  [ %fp + 0x4c ], %g1
    a76c:	80 a0 60 10 	cmp  %g1, 0x10
    a770:	12 80 00 11 	bne  a7b4 <number+0x3c0>
    a774:	01 00 00 00 	nop 
    a778:	c2 07 a0 44 	ld  [ %fp + 0x44 ], %g1
    a77c:	84 10 20 30 	mov  0x30, %g2
    a780:	c4 28 40 00 	stb  %g2, [ %g1 ]
    a784:	c2 07 a0 44 	ld  [ %fp + 0x44 ], %g1
    a788:	82 00 60 01 	inc  %g1
    a78c:	c2 27 a0 44 	st  %g1, [ %fp + 0x44 ]
    a790:	03 00 00 42 	sethi  %hi(0x10800), %g1
    a794:	82 10 61 40 	or  %g1, 0x140, %g1	! 10940 <digits>
    a798:	c2 00 40 00 	ld  [ %g1 ], %g1
    a79c:	c4 08 60 21 	ldub  [ %g1 + 0x21 ], %g2
    a7a0:	c2 07 a0 44 	ld  [ %fp + 0x44 ], %g1
    a7a4:	c4 28 40 00 	stb  %g2, [ %g1 ]
    a7a8:	c2 07 a0 44 	ld  [ %fp + 0x44 ], %g1
    a7ac:	82 00 60 01 	inc  %g1
    a7b0:	c2 27 a0 44 	st  %g1, [ %fp + 0x44 ]
    a7b4:	c2 07 a0 58 	ld  [ %fp + 0x58 ], %g1
    a7b8:	82 08 60 10 	and  %g1, 0x10, %g1
    a7bc:	80 a0 60 00 	cmp  %g1, 0
    a7c0:	12 80 00 20 	bne  a840 <number+0x44c>
    a7c4:	01 00 00 00 	nop 
    a7c8:	10 80 00 08 	b  a7e8 <number+0x3f4>
    a7cc:	01 00 00 00 	nop 
    a7d0:	c2 07 a0 44 	ld  [ %fp + 0x44 ], %g1
    a7d4:	c4 0f bf f3 	ldub  [ %fp + -13 ], %g2
    a7d8:	c4 28 40 00 	stb  %g2, [ %g1 ]
    a7dc:	c2 07 a0 44 	ld  [ %fp + 0x44 ], %g1
    a7e0:	82 00 60 01 	inc  %g1
    a7e4:	c2 27 a0 44 	st  %g1, [ %fp + 0x44 ]
    a7e8:	c2 07 a0 50 	ld  [ %fp + 0x50 ], %g1
    a7ec:	85 38 60 1f 	sra  %g1, 0x1f, %g2
    a7f0:	c2 07 a0 50 	ld  [ %fp + 0x50 ], %g1
    a7f4:	82 20 80 01 	sub  %g2, %g1, %g1
    a7f8:	83 30 60 1f 	srl  %g1, 0x1f, %g1
    a7fc:	c4 07 a0 50 	ld  [ %fp + 0x50 ], %g2
    a800:	84 00 bf ff 	add  %g2, -1, %g2
    a804:	c4 27 a0 50 	st  %g2, [ %fp + 0x50 ]
    a808:	82 08 60 ff 	and  %g1, 0xff, %g1
    a80c:	80 a0 60 00 	cmp  %g1, 0
    a810:	12 bf ff f0 	bne  a7d0 <number+0x3dc>
    a814:	01 00 00 00 	nop 
    a818:	10 80 00 0a 	b  a840 <number+0x44c>
    a81c:	01 00 00 00 	nop 
    a820:	c2 07 a0 44 	ld  [ %fp + 0x44 ], %g1
    a824:	84 10 20 30 	mov  0x30, %g2
    a828:	c4 28 40 00 	stb  %g2, [ %g1 ]
    a82c:	c2 07 a0 44 	ld  [ %fp + 0x44 ], %g1
    a830:	82 00 60 01 	inc  %g1
    a834:	c2 27 a0 44 	st  %g1, [ %fp + 0x44 ]
    a838:	10 80 00 03 	b  a844 <number+0x450>
    a83c:	01 00 00 00 	nop 
    a840:	01 00 00 00 	nop 
    a844:	82 10 20 01 	mov  1, %g1	! 1 <_start+0x1>
    a848:	c6 07 a0 54 	ld  [ %fp + 0x54 ], %g3
    a84c:	c4 07 bf f4 	ld  [ %fp + -12 ], %g2
    a850:	80 a0 c0 02 	cmp  %g3, %g2
    a854:	14 80 00 03 	bg  a860 <number+0x46c>
    a858:	01 00 00 00 	nop 
    a85c:	82 10 20 00 	clr  %g1	! 0 <_start>
    a860:	c4 07 a0 54 	ld  [ %fp + 0x54 ], %g2
    a864:	84 00 bf ff 	add  %g2, -1, %g2
    a868:	c4 27 a0 54 	st  %g2, [ %fp + 0x54 ]
    a86c:	82 08 60 ff 	and  %g1, 0xff, %g1
    a870:	80 a0 60 00 	cmp  %g1, 0
    a874:	12 bf ff eb 	bne  a820 <number+0x42c>
    a878:	01 00 00 00 	nop 
    a87c:	10 80 00 0a 	b  a8a4 <number+0x4b0>
    a880:	01 00 00 00 	nop 
    a884:	c2 07 bf f4 	ld  [ %fp + -12 ], %g1
    a888:	82 07 80 01 	add  %fp, %g1, %g1
    a88c:	c4 08 7f b0 	ldub  [ %g1 + -80 ], %g2
    a890:	c2 07 a0 44 	ld  [ %fp + 0x44 ], %g1
    a894:	c4 28 40 00 	stb  %g2, [ %g1 ]
    a898:	c2 07 a0 44 	ld  [ %fp + 0x44 ], %g1
    a89c:	82 00 60 01 	inc  %g1
    a8a0:	c2 27 a0 44 	st  %g1, [ %fp + 0x44 ]
    a8a4:	c2 07 bf f4 	ld  [ %fp + -12 ], %g1
    a8a8:	85 38 60 1f 	sra  %g1, 0x1f, %g2
    a8ac:	c2 07 bf f4 	ld  [ %fp + -12 ], %g1
    a8b0:	82 20 80 01 	sub  %g2, %g1, %g1
    a8b4:	83 30 60 1f 	srl  %g1, 0x1f, %g1
    a8b8:	c4 07 bf f4 	ld  [ %fp + -12 ], %g2
    a8bc:	84 00 bf ff 	add  %g2, -1, %g2
    a8c0:	c4 27 bf f4 	st  %g2, [ %fp + -12 ]
    a8c4:	82 08 60 ff 	and  %g1, 0xff, %g1
    a8c8:	80 a0 60 00 	cmp  %g1, 0
    a8cc:	12 bf ff ee 	bne  a884 <number+0x490>
    a8d0:	01 00 00 00 	nop 
    a8d4:	10 80 00 08 	b  a8f4 <number+0x500>
    a8d8:	01 00 00 00 	nop 
    a8dc:	c2 07 a0 44 	ld  [ %fp + 0x44 ], %g1
    a8e0:	84 10 20 20 	mov  0x20, %g2
    a8e4:	c4 28 40 00 	stb  %g2, [ %g1 ]
    a8e8:	c2 07 a0 44 	ld  [ %fp + 0x44 ], %g1
    a8ec:	82 00 60 01 	inc  %g1
    a8f0:	c2 27 a0 44 	st  %g1, [ %fp + 0x44 ]
    a8f4:	c2 07 a0 50 	ld  [ %fp + 0x50 ], %g1
    a8f8:	85 38 60 1f 	sra  %g1, 0x1f, %g2
    a8fc:	c2 07 a0 50 	ld  [ %fp + 0x50 ], %g1
    a900:	82 20 80 01 	sub  %g2, %g1, %g1
    a904:	83 30 60 1f 	srl  %g1, 0x1f, %g1
    a908:	c4 07 a0 50 	ld  [ %fp + 0x50 ], %g2
    a90c:	84 00 bf ff 	add  %g2, -1, %g2
    a910:	c4 27 a0 50 	st  %g2, [ %fp + 0x50 ]
    a914:	82 08 60 ff 	and  %g1, 0xff, %g1
    a918:	80 a0 60 00 	cmp  %g1, 0
    a91c:	12 bf ff f0 	bne  a8dc <number+0x4e8>
    a920:	01 00 00 00 	nop 
    a924:	c2 07 a0 44 	ld  [ %fp + 0x44 ], %g1
    a928:	b0 10 00 01 	mov  %g1, %i0
    a92c:	81 e8 00 00 	restore 
    a930:	81 c3 e0 08 	retl 
    a934:	01 00 00 00 	nop 

0000a938 <eaddr>:
    a938:	9d e3 bf 78 	save  %sp, -136, %sp
    a93c:	f0 27 a0 44 	st  %i0, [ %fp + 0x44 ]
    a940:	f2 27 a0 48 	st  %i1, [ %fp + 0x48 ]
    a944:	f4 27 a0 4c 	st  %i2, [ %fp + 0x4c ]
    a948:	f6 27 a0 50 	st  %i3, [ %fp + 0x50 ]
    a94c:	f8 27 a0 54 	st  %i4, [ %fp + 0x54 ]
    a950:	03 00 00 42 	sethi  %hi(0x10800), %g1
    a954:	82 10 61 40 	or  %g1, 0x140, %g1	! 10940 <digits>
    a958:	c2 00 40 00 	ld  [ %g1 ], %g1
    a95c:	c2 27 bf fc 	st  %g1, [ %fp + -4 ]
    a960:	c2 07 a0 54 	ld  [ %fp + 0x54 ], %g1
    a964:	82 08 60 40 	and  %g1, 0x40, %g1
    a968:	80 a0 60 00 	cmp  %g1, 0
    a96c:	02 80 00 06 	be  a984 <eaddr+0x4c>
    a970:	01 00 00 00 	nop 
    a974:	03 00 00 42 	sethi  %hi(0x10800), %g1
    a978:	82 10 61 44 	or  %g1, 0x144, %g1	! 10944 <upper_digits>
    a97c:	c2 00 40 00 	ld  [ %g1 ], %g1
    a980:	c2 27 bf fc 	st  %g1, [ %fp + -4 ]
    a984:	c0 27 bf f4 	clr  [ %fp + -12 ]
    a988:	c0 27 bf f8 	clr  [ %fp + -8 ]
    a98c:	10 80 00 2f 	b  aa48 <eaddr+0x110>
    a990:	01 00 00 00 	nop 
    a994:	c2 07 bf f8 	ld  [ %fp + -8 ], %g1
    a998:	80 a0 60 00 	cmp  %g1, 0
    a99c:	02 80 00 09 	be  a9c0 <eaddr+0x88>
    a9a0:	01 00 00 00 	nop 
    a9a4:	c2 07 bf f4 	ld  [ %fp + -12 ], %g1
    a9a8:	82 07 80 01 	add  %fp, %g1, %g1
    a9ac:	84 10 20 3a 	mov  0x3a, %g2
    a9b0:	c4 28 7f d8 	stb  %g2, [ %g1 + -40 ]
    a9b4:	c2 07 bf f4 	ld  [ %fp + -12 ], %g1
    a9b8:	82 00 60 01 	inc  %g1
    a9bc:	c2 27 bf f4 	st  %g1, [ %fp + -12 ]
    a9c0:	c2 07 bf f8 	ld  [ %fp + -8 ], %g1
    a9c4:	c4 07 a0 48 	ld  [ %fp + 0x48 ], %g2
    a9c8:	82 00 80 01 	add  %g2, %g1, %g1
    a9cc:	c2 08 40 00 	ldub  [ %g1 ], %g1
    a9d0:	82 08 60 ff 	and  %g1, 0xff, %g1
    a9d4:	83 30 60 04 	srl  %g1, 4, %g1
    a9d8:	82 08 60 ff 	and  %g1, 0xff, %g1
    a9dc:	c4 07 bf fc 	ld  [ %fp + -4 ], %g2
    a9e0:	82 00 80 01 	add  %g2, %g1, %g1
    a9e4:	c4 08 40 00 	ldub  [ %g1 ], %g2
    a9e8:	c2 07 bf f4 	ld  [ %fp + -12 ], %g1
    a9ec:	82 07 80 01 	add  %fp, %g1, %g1
    a9f0:	c4 28 7f d8 	stb  %g2, [ %g1 + -40 ]
    a9f4:	c2 07 bf f4 	ld  [ %fp + -12 ], %g1
    a9f8:	82 00 60 01 	inc  %g1
    a9fc:	c2 27 bf f4 	st  %g1, [ %fp + -12 ]
    aa00:	c2 07 bf f8 	ld  [ %fp + -8 ], %g1
    aa04:	c4 07 a0 48 	ld  [ %fp + 0x48 ], %g2
    aa08:	82 00 80 01 	add  %g2, %g1, %g1
    aa0c:	c2 08 40 00 	ldub  [ %g1 ], %g1
    aa10:	82 08 60 ff 	and  %g1, 0xff, %g1
    aa14:	82 08 60 0f 	and  %g1, 0xf, %g1
    aa18:	c4 07 bf fc 	ld  [ %fp + -4 ], %g2
    aa1c:	82 00 80 01 	add  %g2, %g1, %g1
    aa20:	c4 08 40 00 	ldub  [ %g1 ], %g2
    aa24:	c2 07 bf f4 	ld  [ %fp + -12 ], %g1
    aa28:	82 07 80 01 	add  %fp, %g1, %g1
    aa2c:	c4 28 7f d8 	stb  %g2, [ %g1 + -40 ]
    aa30:	c2 07 bf f4 	ld  [ %fp + -12 ], %g1
    aa34:	82 00 60 01 	inc  %g1
    aa38:	c2 27 bf f4 	st  %g1, [ %fp + -12 ]
    aa3c:	c2 07 bf f8 	ld  [ %fp + -8 ], %g1
    aa40:	82 00 60 01 	inc  %g1
    aa44:	c2 27 bf f8 	st  %g1, [ %fp + -8 ]
    aa48:	c2 07 bf f8 	ld  [ %fp + -8 ], %g1
    aa4c:	80 a0 60 05 	cmp  %g1, 5
    aa50:	04 bf ff d1 	ble  a994 <eaddr+0x5c>
    aa54:	01 00 00 00 	nop 
    aa58:	c2 07 a0 54 	ld  [ %fp + 0x54 ], %g1
    aa5c:	82 08 60 10 	and  %g1, 0x10, %g1
    aa60:	80 a0 60 00 	cmp  %g1, 0
    aa64:	12 80 00 18 	bne  aac4 <eaddr+0x18c>
    aa68:	01 00 00 00 	nop 
    aa6c:	10 80 00 08 	b  aa8c <eaddr+0x154>
    aa70:	01 00 00 00 	nop 
    aa74:	c2 07 a0 44 	ld  [ %fp + 0x44 ], %g1
    aa78:	84 10 20 20 	mov  0x20, %g2
    aa7c:	c4 28 40 00 	stb  %g2, [ %g1 ]
    aa80:	c2 07 a0 44 	ld  [ %fp + 0x44 ], %g1
    aa84:	82 00 60 01 	inc  %g1
    aa88:	c2 27 a0 44 	st  %g1, [ %fp + 0x44 ]
    aa8c:	82 10 20 01 	mov  1, %g1
    aa90:	c6 07 a0 4c 	ld  [ %fp + 0x4c ], %g3
    aa94:	c4 07 bf f4 	ld  [ %fp + -12 ], %g2
    aa98:	80 a0 c0 02 	cmp  %g3, %g2
    aa9c:	14 80 00 03 	bg  aaa8 <eaddr+0x170>
    aaa0:	01 00 00 00 	nop 
    aaa4:	82 10 20 00 	clr  %g1	! 0 <_start>
    aaa8:	c4 07 a0 4c 	ld  [ %fp + 0x4c ], %g2
    aaac:	84 00 bf ff 	add  %g2, -1, %g2
    aab0:	c4 27 a0 4c 	st  %g2, [ %fp + 0x4c ]
    aab4:	82 08 60 ff 	and  %g1, 0xff, %g1
    aab8:	80 a0 60 00 	cmp  %g1, 0
    aabc:	12 bf ff ee 	bne  aa74 <eaddr+0x13c>
    aac0:	01 00 00 00 	nop 
    aac4:	c0 27 bf f8 	clr  [ %fp + -8 ]
    aac8:	10 80 00 0d 	b  aafc <eaddr+0x1c4>
    aacc:	01 00 00 00 	nop 
    aad0:	c2 07 bf f8 	ld  [ %fp + -8 ], %g1
    aad4:	82 07 80 01 	add  %fp, %g1, %g1
    aad8:	c4 08 7f d8 	ldub  [ %g1 + -40 ], %g2
    aadc:	c2 07 a0 44 	ld  [ %fp + 0x44 ], %g1
    aae0:	c4 28 40 00 	stb  %g2, [ %g1 ]
    aae4:	c2 07 a0 44 	ld  [ %fp + 0x44 ], %g1
    aae8:	82 00 60 01 	inc  %g1
    aaec:	c2 27 a0 44 	st  %g1, [ %fp + 0x44 ]
    aaf0:	c2 07 bf f8 	ld  [ %fp + -8 ], %g1
    aaf4:	82 00 60 01 	inc  %g1
    aaf8:	c2 27 bf f8 	st  %g1, [ %fp + -8 ]
    aafc:	c4 07 bf f8 	ld  [ %fp + -8 ], %g2
    ab00:	c2 07 bf f4 	ld  [ %fp + -12 ], %g1
    ab04:	80 a0 80 01 	cmp  %g2, %g1
    ab08:	06 bf ff f2 	bl  aad0 <eaddr+0x198>
    ab0c:	01 00 00 00 	nop 
    ab10:	10 80 00 08 	b  ab30 <eaddr+0x1f8>
    ab14:	01 00 00 00 	nop 
    ab18:	c2 07 a0 44 	ld  [ %fp + 0x44 ], %g1
    ab1c:	84 10 20 20 	mov  0x20, %g2
    ab20:	c4 28 40 00 	stb  %g2, [ %g1 ]
    ab24:	c2 07 a0 44 	ld  [ %fp + 0x44 ], %g1
    ab28:	82 00 60 01 	inc  %g1
    ab2c:	c2 27 a0 44 	st  %g1, [ %fp + 0x44 ]
    ab30:	82 10 20 01 	mov  1, %g1
    ab34:	c6 07 a0 4c 	ld  [ %fp + 0x4c ], %g3
    ab38:	c4 07 bf f4 	ld  [ %fp + -12 ], %g2
    ab3c:	80 a0 c0 02 	cmp  %g3, %g2
    ab40:	14 80 00 03 	bg  ab4c <eaddr+0x214>
    ab44:	01 00 00 00 	nop 
    ab48:	82 10 20 00 	clr  %g1	! 0 <_start>
    ab4c:	c4 07 a0 4c 	ld  [ %fp + 0x4c ], %g2
    ab50:	84 00 bf ff 	add  %g2, -1, %g2
    ab54:	c4 27 a0 4c 	st  %g2, [ %fp + 0x4c ]
    ab58:	82 08 60 ff 	and  %g1, 0xff, %g1
    ab5c:	80 a0 60 00 	cmp  %g1, 0
    ab60:	12 bf ff ee 	bne  ab18 <eaddr+0x1e0>
    ab64:	01 00 00 00 	nop 
    ab68:	c2 07 a0 44 	ld  [ %fp + 0x44 ], %g1
    ab6c:	b0 10 00 01 	mov  %g1, %i0
    ab70:	81 e8 00 00 	restore 
    ab74:	81 c3 e0 08 	retl 
    ab78:	01 00 00 00 	nop 

0000ab7c <iaddr>:
    ab7c:	9d e3 bf 78 	save  %sp, -136, %sp
    ab80:	f0 27 a0 44 	st  %i0, [ %fp + 0x44 ]
    ab84:	f2 27 a0 48 	st  %i1, [ %fp + 0x48 ]
    ab88:	f4 27 a0 4c 	st  %i2, [ %fp + 0x4c ]
    ab8c:	f6 27 a0 50 	st  %i3, [ %fp + 0x50 ]
    ab90:	f8 27 a0 54 	st  %i4, [ %fp + 0x54 ]
    ab94:	c0 27 bf f4 	clr  [ %fp + -12 ]
    ab98:	c0 27 bf fc 	clr  [ %fp + -4 ]
    ab9c:	10 80 00 94 	b  adec <iaddr+0x270>
    aba0:	01 00 00 00 	nop 
    aba4:	c2 07 bf fc 	ld  [ %fp + -4 ], %g1
    aba8:	80 a0 60 00 	cmp  %g1, 0
    abac:	02 80 00 09 	be  abd0 <iaddr+0x54>
    abb0:	01 00 00 00 	nop 
    abb4:	c2 07 bf f4 	ld  [ %fp + -12 ], %g1
    abb8:	82 07 80 01 	add  %fp, %g1, %g1
    abbc:	84 10 20 2e 	mov  0x2e, %g2
    abc0:	c4 28 7f d8 	stb  %g2, [ %g1 + -40 ]
    abc4:	c2 07 bf f4 	ld  [ %fp + -12 ], %g1
    abc8:	82 00 60 01 	inc  %g1
    abcc:	c2 27 bf f4 	st  %g1, [ %fp + -12 ]
    abd0:	c2 07 bf fc 	ld  [ %fp + -4 ], %g1
    abd4:	c4 07 a0 48 	ld  [ %fp + 0x48 ], %g2
    abd8:	82 00 80 01 	add  %g2, %g1, %g1
    abdc:	c2 08 40 00 	ldub  [ %g1 ], %g1
    abe0:	82 08 60 ff 	and  %g1, 0xff, %g1
    abe4:	c2 27 bf f8 	st  %g1, [ %fp + -8 ]
    abe8:	c2 07 bf f8 	ld  [ %fp + -8 ], %g1
    abec:	80 a0 60 00 	cmp  %g1, 0
    abf0:	12 80 00 0e 	bne  ac28 <iaddr+0xac>
    abf4:	01 00 00 00 	nop 
    abf8:	03 00 00 42 	sethi  %hi(0x10800), %g1
    abfc:	82 10 61 40 	or  %g1, 0x140, %g1	! 10940 <digits>
    ac00:	c2 00 40 00 	ld  [ %g1 ], %g1
    ac04:	c4 08 40 00 	ldub  [ %g1 ], %g2
    ac08:	c2 07 bf f4 	ld  [ %fp + -12 ], %g1
    ac0c:	82 07 80 01 	add  %fp, %g1, %g1
    ac10:	c4 28 7f d8 	stb  %g2, [ %g1 + -40 ]
    ac14:	c2 07 bf f4 	ld  [ %fp + -12 ], %g1
    ac18:	82 00 60 01 	inc  %g1
    ac1c:	c2 27 bf f4 	st  %g1, [ %fp + -12 ]
    ac20:	10 80 00 70 	b  ade0 <iaddr+0x264>
    ac24:	01 00 00 00 	nop 
    ac28:	c2 07 bf f8 	ld  [ %fp + -8 ], %g1
    ac2c:	80 a0 60 63 	cmp  %g1, 0x63
    ac30:	04 80 00 3e 	ble  ad28 <iaddr+0x1ac>
    ac34:	01 00 00 00 	nop 
    ac38:	03 00 00 42 	sethi  %hi(0x10800), %g1
    ac3c:	82 10 61 40 	or  %g1, 0x140, %g1	! 10940 <digits>
    ac40:	c4 00 40 00 	ld  [ %g1 ], %g2
    ac44:	c2 07 bf f8 	ld  [ %fp + -8 ], %g1
    ac48:	87 38 60 1f 	sra  %g1, 0x1f, %g3
    ac4c:	81 80 e0 00 	mov  %g3, %y
    ac50:	01 00 00 00 	nop 
    ac54:	01 00 00 00 	nop 
    ac58:	01 00 00 00 	nop 
    ac5c:	82 78 60 64 	sdiv  %g1, 0x64, %g1
    ac60:	82 00 80 01 	add  %g2, %g1, %g1
    ac64:	c4 08 40 00 	ldub  [ %g1 ], %g2
    ac68:	c2 07 bf f4 	ld  [ %fp + -12 ], %g1
    ac6c:	82 07 80 01 	add  %fp, %g1, %g1
    ac70:	c4 28 7f d8 	stb  %g2, [ %g1 + -40 ]
    ac74:	c2 07 bf f4 	ld  [ %fp + -12 ], %g1
    ac78:	82 00 60 01 	inc  %g1
    ac7c:	c2 27 bf f4 	st  %g1, [ %fp + -12 ]
    ac80:	c2 07 bf f8 	ld  [ %fp + -8 ], %g1
    ac84:	87 38 60 1f 	sra  %g1, 0x1f, %g3
    ac88:	81 80 e0 00 	mov  %g3, %y
    ac8c:	01 00 00 00 	nop 
    ac90:	01 00 00 00 	nop 
    ac94:	01 00 00 00 	nop 
    ac98:	84 78 60 64 	sdiv  %g1, 0x64, %g2
    ac9c:	84 58 a0 64 	smul  %g2, 0x64, %g2
    aca0:	82 20 40 02 	sub  %g1, %g2, %g1
    aca4:	c2 27 bf f8 	st  %g1, [ %fp + -8 ]
    aca8:	03 00 00 42 	sethi  %hi(0x10800), %g1
    acac:	82 10 61 40 	or  %g1, 0x140, %g1	! 10940 <digits>
    acb0:	c4 00 40 00 	ld  [ %g1 ], %g2
    acb4:	c2 07 bf f8 	ld  [ %fp + -8 ], %g1
    acb8:	87 38 60 1f 	sra  %g1, 0x1f, %g3
    acbc:	81 80 e0 00 	mov  %g3, %y
    acc0:	01 00 00 00 	nop 
    acc4:	01 00 00 00 	nop 
    acc8:	01 00 00 00 	nop 
    accc:	82 78 60 0a 	sdiv  %g1, 0xa, %g1
    acd0:	82 00 80 01 	add  %g2, %g1, %g1
    acd4:	c4 08 40 00 	ldub  [ %g1 ], %g2
    acd8:	c2 07 bf f4 	ld  [ %fp + -12 ], %g1
    acdc:	82 07 80 01 	add  %fp, %g1, %g1
    ace0:	c4 28 7f d8 	stb  %g2, [ %g1 + -40 ]
    ace4:	c2 07 bf f4 	ld  [ %fp + -12 ], %g1
    ace8:	82 00 60 01 	inc  %g1
    acec:	c2 27 bf f4 	st  %g1, [ %fp + -12 ]
    acf0:	c4 07 bf f8 	ld  [ %fp + -8 ], %g2
    acf4:	87 38 a0 1f 	sra  %g2, 0x1f, %g3
    acf8:	81 80 e0 00 	mov  %g3, %y
    acfc:	01 00 00 00 	nop 
    ad00:	01 00 00 00 	nop 
    ad04:	01 00 00 00 	nop 
    ad08:	82 78 a0 0a 	sdiv  %g2, 0xa, %g1
    ad0c:	82 00 40 01 	add  %g1, %g1, %g1
    ad10:	87 28 60 02 	sll  %g1, 2, %g3
    ad14:	82 00 40 03 	add  %g1, %g3, %g1
    ad18:	82 20 80 01 	sub  %g2, %g1, %g1
    ad1c:	c2 27 bf f8 	st  %g1, [ %fp + -8 ]
    ad20:	10 80 00 24 	b  adb0 <iaddr+0x234>
    ad24:	01 00 00 00 	nop 
    ad28:	c2 07 bf f8 	ld  [ %fp + -8 ], %g1
    ad2c:	80 a0 60 09 	cmp  %g1, 9
    ad30:	04 80 00 20 	ble  adb0 <iaddr+0x234>
    ad34:	01 00 00 00 	nop 
    ad38:	03 00 00 42 	sethi  %hi(0x10800), %g1
    ad3c:	82 10 61 40 	or  %g1, 0x140, %g1	! 10940 <digits>
    ad40:	c4 00 40 00 	ld  [ %g1 ], %g2
    ad44:	c2 07 bf f8 	ld  [ %fp + -8 ], %g1
    ad48:	87 38 60 1f 	sra  %g1, 0x1f, %g3
    ad4c:	81 80 e0 00 	mov  %g3, %y
    ad50:	01 00 00 00 	nop 
    ad54:	01 00 00 00 	nop 
    ad58:	01 00 00 00 	nop 
    ad5c:	82 78 60 0a 	sdiv  %g1, 0xa, %g1
    ad60:	82 00 80 01 	add  %g2, %g1, %g1
    ad64:	c4 08 40 00 	ldub  [ %g1 ], %g2
    ad68:	c2 07 bf f4 	ld  [ %fp + -12 ], %g1
    ad6c:	82 07 80 01 	add  %fp, %g1, %g1
    ad70:	c4 28 7f d8 	stb  %g2, [ %g1 + -40 ]
    ad74:	c2 07 bf f4 	ld  [ %fp + -12 ], %g1
    ad78:	82 00 60 01 	inc  %g1
    ad7c:	c2 27 bf f4 	st  %g1, [ %fp + -12 ]
    ad80:	c4 07 bf f8 	ld  [ %fp + -8 ], %g2
    ad84:	87 38 a0 1f 	sra  %g2, 0x1f, %g3
    ad88:	81 80 e0 00 	mov  %g3, %y
    ad8c:	01 00 00 00 	nop 
    ad90:	01 00 00 00 	nop 
    ad94:	01 00 00 00 	nop 
    ad98:	82 78 a0 0a 	sdiv  %g2, 0xa, %g1
    ad9c:	82 00 40 01 	add  %g1, %g1, %g1
    ada0:	87 28 60 02 	sll  %g1, 2, %g3
    ada4:	82 00 40 03 	add  %g1, %g3, %g1
    ada8:	82 20 80 01 	sub  %g2, %g1, %g1
    adac:	c2 27 bf f8 	st  %g1, [ %fp + -8 ]
    adb0:	03 00 00 42 	sethi  %hi(0x10800), %g1
    adb4:	82 10 61 40 	or  %g1, 0x140, %g1	! 10940 <digits>
    adb8:	c4 00 40 00 	ld  [ %g1 ], %g2
    adbc:	c2 07 bf f8 	ld  [ %fp + -8 ], %g1
    adc0:	82 00 80 01 	add  %g2, %g1, %g1
    adc4:	c4 08 40 00 	ldub  [ %g1 ], %g2
    adc8:	c2 07 bf f4 	ld  [ %fp + -12 ], %g1
    adcc:	82 07 80 01 	add  %fp, %g1, %g1
    add0:	c4 28 7f d8 	stb  %g2, [ %g1 + -40 ]
    add4:	c2 07 bf f4 	ld  [ %fp + -12 ], %g1
    add8:	82 00 60 01 	inc  %g1
    addc:	c2 27 bf f4 	st  %g1, [ %fp + -12 ]
    ade0:	c2 07 bf fc 	ld  [ %fp + -4 ], %g1
    ade4:	82 00 60 01 	inc  %g1
    ade8:	c2 27 bf fc 	st  %g1, [ %fp + -4 ]
    adec:	c2 07 bf fc 	ld  [ %fp + -4 ], %g1
    adf0:	80 a0 60 03 	cmp  %g1, 3
    adf4:	04 bf ff 6c 	ble  aba4 <iaddr+0x28>
    adf8:	01 00 00 00 	nop 
    adfc:	c2 07 a0 54 	ld  [ %fp + 0x54 ], %g1
    ae00:	82 08 60 10 	and  %g1, 0x10, %g1
    ae04:	80 a0 60 00 	cmp  %g1, 0
    ae08:	12 80 00 18 	bne  ae68 <iaddr+0x2ec>
    ae0c:	01 00 00 00 	nop 
    ae10:	10 80 00 08 	b  ae30 <iaddr+0x2b4>
    ae14:	01 00 00 00 	nop 
    ae18:	c2 07 a0 44 	ld  [ %fp + 0x44 ], %g1
    ae1c:	84 10 20 20 	mov  0x20, %g2
    ae20:	c4 28 40 00 	stb  %g2, [ %g1 ]
    ae24:	c2 07 a0 44 	ld  [ %fp + 0x44 ], %g1
    ae28:	82 00 60 01 	inc  %g1
    ae2c:	c2 27 a0 44 	st  %g1, [ %fp + 0x44 ]
    ae30:	82 10 20 01 	mov  1, %g1
    ae34:	c6 07 a0 4c 	ld  [ %fp + 0x4c ], %g3
    ae38:	c4 07 bf f4 	ld  [ %fp + -12 ], %g2
    ae3c:	80 a0 c0 02 	cmp  %g3, %g2
    ae40:	14 80 00 03 	bg  ae4c <iaddr+0x2d0>
    ae44:	01 00 00 00 	nop 
    ae48:	82 10 20 00 	clr  %g1	! 0 <_start>
    ae4c:	c4 07 a0 4c 	ld  [ %fp + 0x4c ], %g2
    ae50:	84 00 bf ff 	add  %g2, -1, %g2
    ae54:	c4 27 a0 4c 	st  %g2, [ %fp + 0x4c ]
    ae58:	82 08 60 ff 	and  %g1, 0xff, %g1
    ae5c:	80 a0 60 00 	cmp  %g1, 0
    ae60:	12 bf ff ee 	bne  ae18 <iaddr+0x29c>
    ae64:	01 00 00 00 	nop 
    ae68:	c0 27 bf fc 	clr  [ %fp + -4 ]
    ae6c:	10 80 00 0d 	b  aea0 <iaddr+0x324>
    ae70:	01 00 00 00 	nop 
    ae74:	c2 07 bf fc 	ld  [ %fp + -4 ], %g1
    ae78:	82 07 80 01 	add  %fp, %g1, %g1
    ae7c:	c4 08 7f d8 	ldub  [ %g1 + -40 ], %g2
    ae80:	c2 07 a0 44 	ld  [ %fp + 0x44 ], %g1
    ae84:	c4 28 40 00 	stb  %g2, [ %g1 ]
    ae88:	c2 07 a0 44 	ld  [ %fp + 0x44 ], %g1
    ae8c:	82 00 60 01 	inc  %g1
    ae90:	c2 27 a0 44 	st  %g1, [ %fp + 0x44 ]
    ae94:	c2 07 bf fc 	ld  [ %fp + -4 ], %g1
    ae98:	82 00 60 01 	inc  %g1
    ae9c:	c2 27 bf fc 	st  %g1, [ %fp + -4 ]
    aea0:	c4 07 bf fc 	ld  [ %fp + -4 ], %g2
    aea4:	c2 07 bf f4 	ld  [ %fp + -12 ], %g1
    aea8:	80 a0 80 01 	cmp  %g2, %g1
    aeac:	06 bf ff f2 	bl  ae74 <iaddr+0x2f8>
    aeb0:	01 00 00 00 	nop 
    aeb4:	10 80 00 08 	b  aed4 <iaddr+0x358>
    aeb8:	01 00 00 00 	nop 
    aebc:	c2 07 a0 44 	ld  [ %fp + 0x44 ], %g1
    aec0:	84 10 20 20 	mov  0x20, %g2
    aec4:	c4 28 40 00 	stb  %g2, [ %g1 ]
    aec8:	c2 07 a0 44 	ld  [ %fp + 0x44 ], %g1
    aecc:	82 00 60 01 	inc  %g1
    aed0:	c2 27 a0 44 	st  %g1, [ %fp + 0x44 ]
    aed4:	82 10 20 01 	mov  1, %g1
    aed8:	c6 07 a0 4c 	ld  [ %fp + 0x4c ], %g3
    aedc:	c4 07 bf f4 	ld  [ %fp + -12 ], %g2
    aee0:	80 a0 c0 02 	cmp  %g3, %g2
    aee4:	14 80 00 03 	bg  aef0 <iaddr+0x374>
    aee8:	01 00 00 00 	nop 
    aeec:	82 10 20 00 	clr  %g1	! 0 <_start>
    aef0:	c4 07 a0 4c 	ld  [ %fp + 0x4c ], %g2
    aef4:	84 00 bf ff 	add  %g2, -1, %g2
    aef8:	c4 27 a0 4c 	st  %g2, [ %fp + 0x4c ]
    aefc:	82 08 60 ff 	and  %g1, 0xff, %g1
    af00:	80 a0 60 00 	cmp  %g1, 0
    af04:	12 bf ff ee 	bne  aebc <iaddr+0x340>
    af08:	01 00 00 00 	nop 
    af0c:	c2 07 a0 44 	ld  [ %fp + 0x44 ], %g1
    af10:	b0 10 00 01 	mov  %g1, %i0
    af14:	81 e8 00 00 	restore 
    af18:	81 c3 e0 08 	retl 
    af1c:	01 00 00 00 	nop 

0000af20 <ee_vsprintf>:
    af20:	9d e3 bf 78 	save  %sp, -136, %sp
    af24:	f0 27 a0 44 	st  %i0, [ %fp + 0x44 ]
    af28:	f2 27 a0 48 	st  %i1, [ %fp + 0x48 ]
    af2c:	f4 27 a0 4c 	st  %i2, [ %fp + 0x4c ]
    af30:	c2 07 a0 44 	ld  [ %fp + 0x44 ], %g1
    af34:	c2 27 bf f0 	st  %g1, [ %fp + -16 ]
    af38:	10 80 01 f5 	b  b70c <ee_vsprintf+0x7ec>
    af3c:	01 00 00 00 	nop 
    af40:	c2 07 a0 48 	ld  [ %fp + 0x48 ], %g1
    af44:	c2 08 40 00 	ldub  [ %g1 ], %g1
    af48:	83 28 60 18 	sll  %g1, 0x18, %g1
    af4c:	83 38 60 18 	sra  %g1, 0x18, %g1
    af50:	80 a0 60 25 	cmp  %g1, 0x25
    af54:	02 80 00 0b 	be  af80 <ee_vsprintf+0x60>
    af58:	01 00 00 00 	nop 
    af5c:	c2 07 a0 48 	ld  [ %fp + 0x48 ], %g1
    af60:	c4 08 40 00 	ldub  [ %g1 ], %g2
    af64:	c2 07 bf f0 	ld  [ %fp + -16 ], %g1
    af68:	c4 28 40 00 	stb  %g2, [ %g1 ]
    af6c:	c2 07 bf f0 	ld  [ %fp + -16 ], %g1
    af70:	82 00 60 01 	inc  %g1
    af74:	c2 27 bf f0 	st  %g1, [ %fp + -16 ]
    af78:	10 80 01 e2 	b  b700 <ee_vsprintf+0x7e0>
    af7c:	01 00 00 00 	nop 
    af80:	c0 27 bf e8 	clr  [ %fp + -24 ]
    af84:	c2 07 a0 48 	ld  [ %fp + 0x48 ], %g1
    af88:	82 00 60 01 	inc  %g1
    af8c:	c2 27 a0 48 	st  %g1, [ %fp + 0x48 ]
    af90:	c2 07 a0 48 	ld  [ %fp + 0x48 ], %g1
    af94:	c2 08 40 00 	ldub  [ %g1 ], %g1
    af98:	83 28 60 18 	sll  %g1, 0x18, %g1
    af9c:	83 38 60 18 	sra  %g1, 0x18, %g1
    afa0:	82 00 7f e0 	add  %g1, -32, %g1
    afa4:	80 a0 60 10 	cmp  %g1, 0x10
    afa8:	18 80 00 21 	bgu  b02c <ee_vsprintf+0x10c>
    afac:	01 00 00 00 	nop 
    afb0:	85 28 60 02 	sll  %g1, 2, %g2
    afb4:	03 00 00 28 	sethi  %hi(0xa000), %g1
    afb8:	82 10 62 80 	or  %g1, 0x280, %g1	! a280 <cortos_freeLockVar+0x140>
    afbc:	c2 00 80 01 	ld  [ %g2 + %g1 ], %g1
    afc0:	81 c0 40 00 	jmp  %g1
    afc4:	01 00 00 00 	nop 
    afc8:	c2 07 bf e8 	ld  [ %fp + -24 ], %g1
    afcc:	82 10 60 10 	or  %g1, 0x10, %g1
    afd0:	c2 27 bf e8 	st  %g1, [ %fp + -24 ]
    afd4:	10 bf ff ec 	b  af84 <ee_vsprintf+0x64>
    afd8:	01 00 00 00 	nop 
    afdc:	c2 07 bf e8 	ld  [ %fp + -24 ], %g1
    afe0:	82 10 60 04 	or  %g1, 4, %g1
    afe4:	c2 27 bf e8 	st  %g1, [ %fp + -24 ]
    afe8:	10 bf ff e7 	b  af84 <ee_vsprintf+0x64>
    afec:	01 00 00 00 	nop 
    aff0:	c2 07 bf e8 	ld  [ %fp + -24 ], %g1
    aff4:	82 10 60 08 	or  %g1, 8, %g1
    aff8:	c2 27 bf e8 	st  %g1, [ %fp + -24 ]
    affc:	10 bf ff e2 	b  af84 <ee_vsprintf+0x64>
    b000:	01 00 00 00 	nop 
    b004:	c2 07 bf e8 	ld  [ %fp + -24 ], %g1
    b008:	82 10 60 20 	or  %g1, 0x20, %g1
    b00c:	c2 27 bf e8 	st  %g1, [ %fp + -24 ]
    b010:	10 bf ff dd 	b  af84 <ee_vsprintf+0x64>
    b014:	01 00 00 00 	nop 
    b018:	c2 07 bf e8 	ld  [ %fp + -24 ], %g1
    b01c:	82 10 60 01 	or  %g1, 1, %g1
    b020:	c2 27 bf e8 	st  %g1, [ %fp + -24 ]
    b024:	10 bf ff d8 	b  af84 <ee_vsprintf+0x64>
    b028:	01 00 00 00 	nop 
    b02c:	82 10 3f ff 	mov  -1, %g1	! ffffffff <syncLockVars+0xfffef5c7>
    b030:	c2 27 bf e4 	st  %g1, [ %fp + -28 ]
    b034:	c2 07 a0 48 	ld  [ %fp + 0x48 ], %g1
    b038:	c2 08 40 00 	ldub  [ %g1 ], %g1
    b03c:	83 28 60 18 	sll  %g1, 0x18, %g1
    b040:	83 38 60 18 	sra  %g1, 0x18, %g1
    b044:	80 a0 60 2f 	cmp  %g1, 0x2f
    b048:	04 80 00 10 	ble  b088 <ee_vsprintf+0x168>
    b04c:	01 00 00 00 	nop 
    b050:	c2 07 a0 48 	ld  [ %fp + 0x48 ], %g1
    b054:	c2 08 40 00 	ldub  [ %g1 ], %g1
    b058:	83 28 60 18 	sll  %g1, 0x18, %g1
    b05c:	83 38 60 18 	sra  %g1, 0x18, %g1
    b060:	80 a0 60 39 	cmp  %g1, 0x39
    b064:	14 80 00 09 	bg  b088 <ee_vsprintf+0x168>
    b068:	01 00 00 00 	nop 
    b06c:	82 07 a0 48 	add  %fp, 0x48, %g1
    b070:	90 10 00 01 	mov  %g1, %o0
    b074:	7f ff fc b7 	call  a350 <skip_atoi>
    b078:	01 00 00 00 	nop 
    b07c:	d0 27 bf e4 	st  %o0, [ %fp + -28 ]
    b080:	10 80 00 1c 	b  b0f0 <ee_vsprintf+0x1d0>
    b084:	01 00 00 00 	nop 
    b088:	c2 07 a0 48 	ld  [ %fp + 0x48 ], %g1
    b08c:	c2 08 40 00 	ldub  [ %g1 ], %g1
    b090:	83 28 60 18 	sll  %g1, 0x18, %g1
    b094:	83 38 60 18 	sra  %g1, 0x18, %g1
    b098:	80 a0 60 2a 	cmp  %g1, 0x2a
    b09c:	12 80 00 15 	bne  b0f0 <ee_vsprintf+0x1d0>
    b0a0:	01 00 00 00 	nop 
    b0a4:	c2 07 a0 48 	ld  [ %fp + 0x48 ], %g1
    b0a8:	82 00 60 01 	inc  %g1
    b0ac:	c2 27 a0 48 	st  %g1, [ %fp + 0x48 ]
    b0b0:	c2 07 a0 4c 	ld  [ %fp + 0x4c ], %g1
    b0b4:	c2 00 40 00 	ld  [ %g1 ], %g1
    b0b8:	c2 27 bf e4 	st  %g1, [ %fp + -28 ]
    b0bc:	c2 07 a0 4c 	ld  [ %fp + 0x4c ], %g1
    b0c0:	82 00 60 04 	add  %g1, 4, %g1
    b0c4:	c2 27 a0 4c 	st  %g1, [ %fp + 0x4c ]
    b0c8:	c2 07 bf e4 	ld  [ %fp + -28 ], %g1
    b0cc:	80 a0 60 00 	cmp  %g1, 0
    b0d0:	16 80 00 08 	bge  b0f0 <ee_vsprintf+0x1d0>
    b0d4:	01 00 00 00 	nop 
    b0d8:	c2 07 bf e4 	ld  [ %fp + -28 ], %g1
    b0dc:	82 20 00 01 	neg  %g1
    b0e0:	c2 27 bf e4 	st  %g1, [ %fp + -28 ]
    b0e4:	c2 07 bf e8 	ld  [ %fp + -24 ], %g1
    b0e8:	82 10 60 10 	or  %g1, 0x10, %g1
    b0ec:	c2 27 bf e8 	st  %g1, [ %fp + -24 ]
    b0f0:	82 10 3f ff 	mov  -1, %g1
    b0f4:	c2 27 bf e0 	st  %g1, [ %fp + -32 ]
    b0f8:	c2 07 a0 48 	ld  [ %fp + 0x48 ], %g1
    b0fc:	c2 08 40 00 	ldub  [ %g1 ], %g1
    b100:	83 28 60 18 	sll  %g1, 0x18, %g1
    b104:	83 38 60 18 	sra  %g1, 0x18, %g1
    b108:	80 a0 60 2e 	cmp  %g1, 0x2e
    b10c:	12 80 00 2f 	bne  b1c8 <ee_vsprintf+0x2a8>
    b110:	01 00 00 00 	nop 
    b114:	c2 07 a0 48 	ld  [ %fp + 0x48 ], %g1
    b118:	82 00 60 01 	inc  %g1
    b11c:	c2 27 a0 48 	st  %g1, [ %fp + 0x48 ]
    b120:	c2 07 a0 48 	ld  [ %fp + 0x48 ], %g1
    b124:	c2 08 40 00 	ldub  [ %g1 ], %g1
    b128:	83 28 60 18 	sll  %g1, 0x18, %g1
    b12c:	83 38 60 18 	sra  %g1, 0x18, %g1
    b130:	80 a0 60 2f 	cmp  %g1, 0x2f
    b134:	04 80 00 10 	ble  b174 <ee_vsprintf+0x254>
    b138:	01 00 00 00 	nop 
    b13c:	c2 07 a0 48 	ld  [ %fp + 0x48 ], %g1
    b140:	c2 08 40 00 	ldub  [ %g1 ], %g1
    b144:	83 28 60 18 	sll  %g1, 0x18, %g1
    b148:	83 38 60 18 	sra  %g1, 0x18, %g1
    b14c:	80 a0 60 39 	cmp  %g1, 0x39
    b150:	14 80 00 09 	bg  b174 <ee_vsprintf+0x254>
    b154:	01 00 00 00 	nop 
    b158:	82 07 a0 48 	add  %fp, 0x48, %g1
    b15c:	90 10 00 01 	mov  %g1, %o0
    b160:	7f ff fc 7c 	call  a350 <skip_atoi>
    b164:	01 00 00 00 	nop 
    b168:	d0 27 bf e0 	st  %o0, [ %fp + -32 ]
    b16c:	10 80 00 12 	b  b1b4 <ee_vsprintf+0x294>
    b170:	01 00 00 00 	nop 
    b174:	c2 07 a0 48 	ld  [ %fp + 0x48 ], %g1
    b178:	c2 08 40 00 	ldub  [ %g1 ], %g1
    b17c:	83 28 60 18 	sll  %g1, 0x18, %g1
    b180:	83 38 60 18 	sra  %g1, 0x18, %g1
    b184:	80 a0 60 2a 	cmp  %g1, 0x2a
    b188:	12 80 00 0b 	bne  b1b4 <ee_vsprintf+0x294>
    b18c:	01 00 00 00 	nop 
    b190:	c2 07 a0 48 	ld  [ %fp + 0x48 ], %g1
    b194:	82 00 60 01 	inc  %g1
    b198:	c2 27 a0 48 	st  %g1, [ %fp + 0x48 ]
    b19c:	c2 07 a0 4c 	ld  [ %fp + 0x4c ], %g1
    b1a0:	c2 00 40 00 	ld  [ %g1 ], %g1
    b1a4:	c2 27 bf e0 	st  %g1, [ %fp + -32 ]
    b1a8:	c2 07 a0 4c 	ld  [ %fp + 0x4c ], %g1
    b1ac:	82 00 60 04 	add  %g1, 4, %g1
    b1b0:	c2 27 a0 4c 	st  %g1, [ %fp + 0x4c ]
    b1b4:	c2 07 bf e0 	ld  [ %fp + -32 ], %g1
    b1b8:	80 a0 60 00 	cmp  %g1, 0
    b1bc:	16 80 00 03 	bge  b1c8 <ee_vsprintf+0x2a8>
    b1c0:	01 00 00 00 	nop 
    b1c4:	c0 27 bf e0 	clr  [ %fp + -32 ]
    b1c8:	82 10 3f ff 	mov  -1, %g1
    b1cc:	c2 27 bf dc 	st  %g1, [ %fp + -36 ]
    b1d0:	c2 07 a0 48 	ld  [ %fp + 0x48 ], %g1
    b1d4:	c2 08 40 00 	ldub  [ %g1 ], %g1
    b1d8:	83 28 60 18 	sll  %g1, 0x18, %g1
    b1dc:	83 38 60 18 	sra  %g1, 0x18, %g1
    b1e0:	80 a0 60 6c 	cmp  %g1, 0x6c
    b1e4:	02 80 00 09 	be  b208 <ee_vsprintf+0x2e8>
    b1e8:	01 00 00 00 	nop 
    b1ec:	c2 07 a0 48 	ld  [ %fp + 0x48 ], %g1
    b1f0:	c2 08 40 00 	ldub  [ %g1 ], %g1
    b1f4:	83 28 60 18 	sll  %g1, 0x18, %g1
    b1f8:	83 38 60 18 	sra  %g1, 0x18, %g1
    b1fc:	80 a0 60 4c 	cmp  %g1, 0x4c
    b200:	12 80 00 0a 	bne  b228 <ee_vsprintf+0x308>
    b204:	01 00 00 00 	nop 
    b208:	c2 07 a0 48 	ld  [ %fp + 0x48 ], %g1
    b20c:	c2 08 40 00 	ldub  [ %g1 ], %g1
    b210:	83 28 60 18 	sll  %g1, 0x18, %g1
    b214:	83 38 60 18 	sra  %g1, 0x18, %g1
    b218:	c2 27 bf dc 	st  %g1, [ %fp + -36 ]
    b21c:	c2 07 a0 48 	ld  [ %fp + 0x48 ], %g1
    b220:	82 00 60 01 	inc  %g1
    b224:	c2 27 a0 48 	st  %g1, [ %fp + 0x48 ]
    b228:	82 10 20 0a 	mov  0xa, %g1
    b22c:	c2 27 bf f4 	st  %g1, [ %fp + -12 ]
    b230:	c2 07 a0 48 	ld  [ %fp + 0x48 ], %g1
    b234:	c2 08 40 00 	ldub  [ %g1 ], %g1
    b238:	83 28 60 18 	sll  %g1, 0x18, %g1
    b23c:	83 38 60 18 	sra  %g1, 0x18, %g1
    b240:	82 00 7f bf 	add  %g1, -65, %g1
    b244:	80 a0 60 37 	cmp  %g1, 0x37
    b248:	18 80 00 e2 	bgu  b5d0 <ee_vsprintf+0x6b0>
    b24c:	01 00 00 00 	nop 
    b250:	85 28 60 02 	sll  %g1, 2, %g2
    b254:	03 00 00 28 	sethi  %hi(0xa000), %g1
    b258:	82 10 61 a0 	or  %g1, 0x1a0, %g1	! a1a0 <cortos_freeLockVar+0x60>
    b25c:	c2 00 80 01 	ld  [ %g2 + %g1 ], %g1
    b260:	81 c0 40 00 	jmp  %g1
    b264:	01 00 00 00 	nop 
    b268:	c2 07 bf e8 	ld  [ %fp + -24 ], %g1
    b26c:	82 08 60 10 	and  %g1, 0x10, %g1
    b270:	80 a0 60 00 	cmp  %g1, 0
    b274:	12 80 00 11 	bne  b2b8 <ee_vsprintf+0x398>
    b278:	01 00 00 00 	nop 
    b27c:	10 80 00 08 	b  b29c <ee_vsprintf+0x37c>
    b280:	01 00 00 00 	nop 
    b284:	c2 07 bf f0 	ld  [ %fp + -16 ], %g1
    b288:	84 10 20 20 	mov  0x20, %g2
    b28c:	c4 28 40 00 	stb  %g2, [ %g1 ]
    b290:	c2 07 bf f0 	ld  [ %fp + -16 ], %g1
    b294:	82 00 60 01 	inc  %g1
    b298:	c2 27 bf f0 	st  %g1, [ %fp + -16 ]
    b29c:	c2 07 bf e4 	ld  [ %fp + -28 ], %g1
    b2a0:	82 00 7f ff 	add  %g1, -1, %g1
    b2a4:	c2 27 bf e4 	st  %g1, [ %fp + -28 ]
    b2a8:	c2 07 bf e4 	ld  [ %fp + -28 ], %g1
    b2ac:	80 a0 60 00 	cmp  %g1, 0
    b2b0:	14 bf ff f5 	bg  b284 <ee_vsprintf+0x364>
    b2b4:	01 00 00 00 	nop 
    b2b8:	c2 07 a0 4c 	ld  [ %fp + 0x4c ], %g1
    b2bc:	c2 00 40 00 	ld  [ %g1 ], %g1
    b2c0:	84 10 00 01 	mov  %g1, %g2
    b2c4:	c2 07 bf f0 	ld  [ %fp + -16 ], %g1
    b2c8:	c4 28 40 00 	stb  %g2, [ %g1 ]
    b2cc:	c2 07 bf f0 	ld  [ %fp + -16 ], %g1
    b2d0:	82 00 60 01 	inc  %g1
    b2d4:	c2 27 bf f0 	st  %g1, [ %fp + -16 ]
    b2d8:	c2 07 a0 4c 	ld  [ %fp + 0x4c ], %g1
    b2dc:	82 00 60 04 	add  %g1, 4, %g1
    b2e0:	c2 27 a0 4c 	st  %g1, [ %fp + 0x4c ]
    b2e4:	10 80 00 08 	b  b304 <ee_vsprintf+0x3e4>
    b2e8:	01 00 00 00 	nop 
    b2ec:	c2 07 bf f0 	ld  [ %fp + -16 ], %g1
    b2f0:	84 10 20 20 	mov  0x20, %g2
    b2f4:	c4 28 40 00 	stb  %g2, [ %g1 ]
    b2f8:	c2 07 bf f0 	ld  [ %fp + -16 ], %g1
    b2fc:	82 00 60 01 	inc  %g1
    b300:	c2 27 bf f0 	st  %g1, [ %fp + -16 ]
    b304:	c2 07 bf e4 	ld  [ %fp + -28 ], %g1
    b308:	82 00 7f ff 	add  %g1, -1, %g1
    b30c:	c2 27 bf e4 	st  %g1, [ %fp + -28 ]
    b310:	c2 07 bf e4 	ld  [ %fp + -28 ], %g1
    b314:	80 a0 60 00 	cmp  %g1, 0
    b318:	14 bf ff f5 	bg  b2ec <ee_vsprintf+0x3cc>
    b31c:	01 00 00 00 	nop 
    b320:	10 80 00 f8 	b  b700 <ee_vsprintf+0x7e0>
    b324:	01 00 00 00 	nop 
    b328:	c2 07 a0 4c 	ld  [ %fp + 0x4c ], %g1
    b32c:	c2 00 40 00 	ld  [ %g1 ], %g1
    b330:	c2 27 bf ec 	st  %g1, [ %fp + -20 ]
    b334:	c2 07 a0 4c 	ld  [ %fp + 0x4c ], %g1
    b338:	82 00 60 04 	add  %g1, 4, %g1
    b33c:	c2 27 a0 4c 	st  %g1, [ %fp + 0x4c ]
    b340:	c2 07 bf ec 	ld  [ %fp + -20 ], %g1
    b344:	80 a0 60 00 	cmp  %g1, 0
    b348:	12 80 00 05 	bne  b35c <ee_vsprintf+0x43c>
    b34c:	01 00 00 00 	nop 
    b350:	03 00 00 42 	sethi  %hi(0x10800), %g1
    b354:	82 10 60 90 	or  %g1, 0x90, %g1	! 10890 <PAGE_TABLE_BASE+0x490>
    b358:	c2 27 bf ec 	st  %g1, [ %fp + -20 ]
    b35c:	c2 07 bf e0 	ld  [ %fp + -32 ], %g1
    b360:	d0 07 bf ec 	ld  [ %fp + -20 ], %o0
    b364:	92 10 00 01 	mov  %g1, %o1
    b368:	7f ff fb d7 	call  a2c4 <strnlen>
    b36c:	01 00 00 00 	nop 
    b370:	82 10 00 08 	mov  %o0, %g1
    b374:	c2 27 bf d8 	st  %g1, [ %fp + -40 ]
    b378:	c2 07 bf e8 	ld  [ %fp + -24 ], %g1
    b37c:	82 08 60 10 	and  %g1, 0x10, %g1
    b380:	80 a0 60 00 	cmp  %g1, 0
    b384:	12 80 00 18 	bne  b3e4 <ee_vsprintf+0x4c4>
    b388:	01 00 00 00 	nop 
    b38c:	10 80 00 08 	b  b3ac <ee_vsprintf+0x48c>
    b390:	01 00 00 00 	nop 
    b394:	c2 07 bf f0 	ld  [ %fp + -16 ], %g1
    b398:	84 10 20 20 	mov  0x20, %g2
    b39c:	c4 28 40 00 	stb  %g2, [ %g1 ]
    b3a0:	c2 07 bf f0 	ld  [ %fp + -16 ], %g1
    b3a4:	82 00 60 01 	inc  %g1
    b3a8:	c2 27 bf f0 	st  %g1, [ %fp + -16 ]
    b3ac:	82 10 20 01 	mov  1, %g1
    b3b0:	c6 07 bf e4 	ld  [ %fp + -28 ], %g3
    b3b4:	c4 07 bf d8 	ld  [ %fp + -40 ], %g2
    b3b8:	80 a0 c0 02 	cmp  %g3, %g2
    b3bc:	14 80 00 03 	bg  b3c8 <ee_vsprintf+0x4a8>
    b3c0:	01 00 00 00 	nop 
    b3c4:	82 10 20 00 	clr  %g1	! 0 <_start>
    b3c8:	c4 07 bf e4 	ld  [ %fp + -28 ], %g2
    b3cc:	84 00 bf ff 	add  %g2, -1, %g2
    b3d0:	c4 27 bf e4 	st  %g2, [ %fp + -28 ]
    b3d4:	82 08 60 ff 	and  %g1, 0xff, %g1
    b3d8:	80 a0 60 00 	cmp  %g1, 0
    b3dc:	12 bf ff ee 	bne  b394 <ee_vsprintf+0x474>
    b3e0:	01 00 00 00 	nop 
    b3e4:	c0 27 bf f8 	clr  [ %fp + -8 ]
    b3e8:	10 80 00 0f 	b  b424 <ee_vsprintf+0x504>
    b3ec:	01 00 00 00 	nop 
    b3f0:	c2 07 bf ec 	ld  [ %fp + -20 ], %g1
    b3f4:	c4 08 40 00 	ldub  [ %g1 ], %g2
    b3f8:	c2 07 bf f0 	ld  [ %fp + -16 ], %g1
    b3fc:	c4 28 40 00 	stb  %g2, [ %g1 ]
    b400:	c2 07 bf f0 	ld  [ %fp + -16 ], %g1
    b404:	82 00 60 01 	inc  %g1
    b408:	c2 27 bf f0 	st  %g1, [ %fp + -16 ]
    b40c:	c2 07 bf ec 	ld  [ %fp + -20 ], %g1
    b410:	82 00 60 01 	inc  %g1
    b414:	c2 27 bf ec 	st  %g1, [ %fp + -20 ]
    b418:	c2 07 bf f8 	ld  [ %fp + -8 ], %g1
    b41c:	82 00 60 01 	inc  %g1
    b420:	c2 27 bf f8 	st  %g1, [ %fp + -8 ]
    b424:	c4 07 bf f8 	ld  [ %fp + -8 ], %g2
    b428:	c2 07 bf d8 	ld  [ %fp + -40 ], %g1
    b42c:	80 a0 80 01 	cmp  %g2, %g1
    b430:	06 bf ff f0 	bl  b3f0 <ee_vsprintf+0x4d0>
    b434:	01 00 00 00 	nop 
    b438:	10 80 00 08 	b  b458 <ee_vsprintf+0x538>
    b43c:	01 00 00 00 	nop 
    b440:	c2 07 bf f0 	ld  [ %fp + -16 ], %g1
    b444:	84 10 20 20 	mov  0x20, %g2
    b448:	c4 28 40 00 	stb  %g2, [ %g1 ]
    b44c:	c2 07 bf f0 	ld  [ %fp + -16 ], %g1
    b450:	82 00 60 01 	inc  %g1
    b454:	c2 27 bf f0 	st  %g1, [ %fp + -16 ]
    b458:	82 10 20 01 	mov  1, %g1
    b45c:	c6 07 bf e4 	ld  [ %fp + -28 ], %g3
    b460:	c4 07 bf d8 	ld  [ %fp + -40 ], %g2
    b464:	80 a0 c0 02 	cmp  %g3, %g2
    b468:	14 80 00 03 	bg  b474 <ee_vsprintf+0x554>
    b46c:	01 00 00 00 	nop 
    b470:	82 10 20 00 	clr  %g1	! 0 <_start>
    b474:	c4 07 bf e4 	ld  [ %fp + -28 ], %g2
    b478:	84 00 bf ff 	add  %g2, -1, %g2
    b47c:	c4 27 bf e4 	st  %g2, [ %fp + -28 ]
    b480:	82 08 60 ff 	and  %g1, 0xff, %g1
    b484:	80 a0 60 00 	cmp  %g1, 0
    b488:	12 bf ff ee 	bne  b440 <ee_vsprintf+0x520>
    b48c:	01 00 00 00 	nop 
    b490:	10 80 00 9c 	b  b700 <ee_vsprintf+0x7e0>
    b494:	01 00 00 00 	nop 
    b498:	c2 07 bf e4 	ld  [ %fp + -28 ], %g1
    b49c:	80 a0 7f ff 	cmp  %g1, -1
    b4a0:	12 80 00 07 	bne  b4bc <ee_vsprintf+0x59c>
    b4a4:	01 00 00 00 	nop 
    b4a8:	82 10 20 08 	mov  8, %g1	! 8 <_start+0x8>
    b4ac:	c2 27 bf e4 	st  %g1, [ %fp + -28 ]
    b4b0:	c2 07 bf e8 	ld  [ %fp + -24 ], %g1
    b4b4:	82 10 60 01 	or  %g1, 1, %g1
    b4b8:	c2 27 bf e8 	st  %g1, [ %fp + -24 ]
    b4bc:	c2 07 a0 4c 	ld  [ %fp + 0x4c ], %g1
    b4c0:	c2 00 40 00 	ld  [ %g1 ], %g1
    b4c4:	c4 07 a0 4c 	ld  [ %fp + 0x4c ], %g2
    b4c8:	84 00 a0 04 	add  %g2, 4, %g2
    b4cc:	c4 27 a0 4c 	st  %g2, [ %fp + 0x4c ]
    b4d0:	d0 07 bf f0 	ld  [ %fp + -16 ], %o0
    b4d4:	92 10 00 01 	mov  %g1, %o1
    b4d8:	94 10 20 10 	mov  0x10, %o2
    b4dc:	d6 07 bf e4 	ld  [ %fp + -28 ], %o3
    b4e0:	d8 07 bf e0 	ld  [ %fp + -32 ], %o4
    b4e4:	da 07 bf e8 	ld  [ %fp + -24 ], %o5
    b4e8:	7f ff fb c3 	call  a3f4 <number>
    b4ec:	01 00 00 00 	nop 
    b4f0:	d0 27 bf f0 	st  %o0, [ %fp + -16 ]
    b4f4:	10 80 00 83 	b  b700 <ee_vsprintf+0x7e0>
    b4f8:	01 00 00 00 	nop 
    b4fc:	c2 07 bf e8 	ld  [ %fp + -24 ], %g1
    b500:	82 10 60 40 	or  %g1, 0x40, %g1
    b504:	c2 27 bf e8 	st  %g1, [ %fp + -24 ]
    b508:	c2 07 bf dc 	ld  [ %fp + -36 ], %g1
    b50c:	80 a0 60 6c 	cmp  %g1, 0x6c
    b510:	12 80 00 11 	bne  b554 <ee_vsprintf+0x634>
    b514:	01 00 00 00 	nop 
    b518:	c2 07 a0 4c 	ld  [ %fp + 0x4c ], %g1
    b51c:	c2 00 40 00 	ld  [ %g1 ], %g1
    b520:	c4 07 a0 4c 	ld  [ %fp + 0x4c ], %g2
    b524:	84 00 a0 04 	add  %g2, 4, %g2
    b528:	c4 27 a0 4c 	st  %g2, [ %fp + 0x4c ]
    b52c:	d0 07 bf f0 	ld  [ %fp + -16 ], %o0
    b530:	92 10 00 01 	mov  %g1, %o1
    b534:	d4 07 bf e4 	ld  [ %fp + -28 ], %o2
    b538:	d6 07 bf e0 	ld  [ %fp + -32 ], %o3
    b53c:	d8 07 bf e8 	ld  [ %fp + -24 ], %o4
    b540:	7f ff fc fe 	call  a938 <eaddr>
    b544:	01 00 00 00 	nop 
    b548:	d0 27 bf f0 	st  %o0, [ %fp + -16 ]
    b54c:	10 80 00 6d 	b  b700 <ee_vsprintf+0x7e0>
    b550:	01 00 00 00 	nop 
    b554:	c2 07 a0 4c 	ld  [ %fp + 0x4c ], %g1
    b558:	c2 00 40 00 	ld  [ %g1 ], %g1
    b55c:	c4 07 a0 4c 	ld  [ %fp + 0x4c ], %g2
    b560:	84 00 a0 04 	add  %g2, 4, %g2
    b564:	c4 27 a0 4c 	st  %g2, [ %fp + 0x4c ]
    b568:	d0 07 bf f0 	ld  [ %fp + -16 ], %o0
    b56c:	92 10 00 01 	mov  %g1, %o1
    b570:	d4 07 bf e4 	ld  [ %fp + -28 ], %o2
    b574:	d6 07 bf e0 	ld  [ %fp + -32 ], %o3
    b578:	d8 07 bf e8 	ld  [ %fp + -24 ], %o4
    b57c:	7f ff fd 80 	call  ab7c <iaddr>
    b580:	01 00 00 00 	nop 
    b584:	d0 27 bf f0 	st  %o0, [ %fp + -16 ]
    b588:	10 80 00 5e 	b  b700 <ee_vsprintf+0x7e0>
    b58c:	01 00 00 00 	nop 
    b590:	82 10 20 08 	mov  8, %g1	! 8 <_start+0x8>
    b594:	c2 27 bf f4 	st  %g1, [ %fp + -12 ]
    b598:	10 80 00 31 	b  b65c <ee_vsprintf+0x73c>
    b59c:	01 00 00 00 	nop 
    b5a0:	c2 07 bf e8 	ld  [ %fp + -24 ], %g1
    b5a4:	82 10 60 40 	or  %g1, 0x40, %g1
    b5a8:	c2 27 bf e8 	st  %g1, [ %fp + -24 ]
    b5ac:	82 10 20 10 	mov  0x10, %g1
    b5b0:	c2 27 bf f4 	st  %g1, [ %fp + -12 ]
    b5b4:	10 80 00 2a 	b  b65c <ee_vsprintf+0x73c>
    b5b8:	01 00 00 00 	nop 
    b5bc:	c2 07 bf e8 	ld  [ %fp + -24 ], %g1
    b5c0:	82 10 60 02 	or  %g1, 2, %g1
    b5c4:	c2 27 bf e8 	st  %g1, [ %fp + -24 ]
    b5c8:	10 80 00 24 	b  b658 <ee_vsprintf+0x738>
    b5cc:	01 00 00 00 	nop 
    b5d0:	c2 07 a0 48 	ld  [ %fp + 0x48 ], %g1
    b5d4:	c2 08 40 00 	ldub  [ %g1 ], %g1
    b5d8:	83 28 60 18 	sll  %g1, 0x18, %g1
    b5dc:	83 38 60 18 	sra  %g1, 0x18, %g1
    b5e0:	80 a0 60 25 	cmp  %g1, 0x25
    b5e4:	02 80 00 08 	be  b604 <ee_vsprintf+0x6e4>
    b5e8:	01 00 00 00 	nop 
    b5ec:	c2 07 bf f0 	ld  [ %fp + -16 ], %g1
    b5f0:	84 10 20 25 	mov  0x25, %g2
    b5f4:	c4 28 40 00 	stb  %g2, [ %g1 ]
    b5f8:	c2 07 bf f0 	ld  [ %fp + -16 ], %g1
    b5fc:	82 00 60 01 	inc  %g1
    b600:	c2 27 bf f0 	st  %g1, [ %fp + -16 ]
    b604:	c2 07 a0 48 	ld  [ %fp + 0x48 ], %g1
    b608:	c2 08 40 00 	ldub  [ %g1 ], %g1
    b60c:	83 28 60 18 	sll  %g1, 0x18, %g1
    b610:	83 38 60 18 	sra  %g1, 0x18, %g1
    b614:	80 a0 60 00 	cmp  %g1, 0
    b618:	02 80 00 0b 	be  b644 <ee_vsprintf+0x724>
    b61c:	01 00 00 00 	nop 
    b620:	c2 07 a0 48 	ld  [ %fp + 0x48 ], %g1
    b624:	c4 08 40 00 	ldub  [ %g1 ], %g2
    b628:	c2 07 bf f0 	ld  [ %fp + -16 ], %g1
    b62c:	c4 28 40 00 	stb  %g2, [ %g1 ]
    b630:	c2 07 bf f0 	ld  [ %fp + -16 ], %g1
    b634:	82 00 60 01 	inc  %g1
    b638:	c2 27 bf f0 	st  %g1, [ %fp + -16 ]
    b63c:	10 80 00 31 	b  b700 <ee_vsprintf+0x7e0>
    b640:	01 00 00 00 	nop 
    b644:	c2 07 a0 48 	ld  [ %fp + 0x48 ], %g1
    b648:	82 00 7f ff 	add  %g1, -1, %g1
    b64c:	c2 27 a0 48 	st  %g1, [ %fp + 0x48 ]
    b650:	10 80 00 2c 	b  b700 <ee_vsprintf+0x7e0>
    b654:	01 00 00 00 	nop 
    b658:	01 00 00 00 	nop 
    b65c:	c2 07 bf dc 	ld  [ %fp + -36 ], %g1
    b660:	80 a0 60 6c 	cmp  %g1, 0x6c
    b664:	12 80 00 0a 	bne  b68c <ee_vsprintf+0x76c>
    b668:	01 00 00 00 	nop 
    b66c:	c2 07 a0 4c 	ld  [ %fp + 0x4c ], %g1
    b670:	c2 00 40 00 	ld  [ %g1 ], %g1
    b674:	c2 27 bf fc 	st  %g1, [ %fp + -4 ]
    b678:	c2 07 a0 4c 	ld  [ %fp + 0x4c ], %g1
    b67c:	82 00 60 04 	add  %g1, 4, %g1
    b680:	c2 27 a0 4c 	st  %g1, [ %fp + 0x4c ]
    b684:	10 80 00 15 	b  b6d8 <ee_vsprintf+0x7b8>
    b688:	01 00 00 00 	nop 
    b68c:	c2 07 bf e8 	ld  [ %fp + -24 ], %g1
    b690:	82 08 60 02 	and  %g1, 2, %g1
    b694:	80 a0 60 00 	cmp  %g1, 0
    b698:	02 80 00 0a 	be  b6c0 <ee_vsprintf+0x7a0>
    b69c:	01 00 00 00 	nop 
    b6a0:	c2 07 a0 4c 	ld  [ %fp + 0x4c ], %g1
    b6a4:	c2 00 40 00 	ld  [ %g1 ], %g1
    b6a8:	c2 27 bf fc 	st  %g1, [ %fp + -4 ]
    b6ac:	c2 07 a0 4c 	ld  [ %fp + 0x4c ], %g1
    b6b0:	82 00 60 04 	add  %g1, 4, %g1
    b6b4:	c2 27 a0 4c 	st  %g1, [ %fp + 0x4c ]
    b6b8:	10 80 00 08 	b  b6d8 <ee_vsprintf+0x7b8>
    b6bc:	01 00 00 00 	nop 
    b6c0:	c2 07 a0 4c 	ld  [ %fp + 0x4c ], %g1
    b6c4:	c2 00 40 00 	ld  [ %g1 ], %g1
    b6c8:	c2 27 bf fc 	st  %g1, [ %fp + -4 ]
    b6cc:	c2 07 a0 4c 	ld  [ %fp + 0x4c ], %g1
    b6d0:	82 00 60 04 	add  %g1, 4, %g1
    b6d4:	c2 27 a0 4c 	st  %g1, [ %fp + 0x4c ]
    b6d8:	c2 07 bf fc 	ld  [ %fp + -4 ], %g1
    b6dc:	d0 07 bf f0 	ld  [ %fp + -16 ], %o0
    b6e0:	92 10 00 01 	mov  %g1, %o1
    b6e4:	d4 07 bf f4 	ld  [ %fp + -12 ], %o2
    b6e8:	d6 07 bf e4 	ld  [ %fp + -28 ], %o3
    b6ec:	d8 07 bf e0 	ld  [ %fp + -32 ], %o4
    b6f0:	da 07 bf e8 	ld  [ %fp + -24 ], %o5
    b6f4:	7f ff fb 40 	call  a3f4 <number>
    b6f8:	01 00 00 00 	nop 
    b6fc:	d0 27 bf f0 	st  %o0, [ %fp + -16 ]
    b700:	c2 07 a0 48 	ld  [ %fp + 0x48 ], %g1
    b704:	82 00 60 01 	inc  %g1
    b708:	c2 27 a0 48 	st  %g1, [ %fp + 0x48 ]
    b70c:	c2 07 a0 48 	ld  [ %fp + 0x48 ], %g1
    b710:	c2 08 40 00 	ldub  [ %g1 ], %g1
    b714:	83 28 60 18 	sll  %g1, 0x18, %g1
    b718:	83 38 60 18 	sra  %g1, 0x18, %g1
    b71c:	80 a0 60 00 	cmp  %g1, 0
    b720:	12 bf fe 08 	bne  af40 <ee_vsprintf+0x20>
    b724:	01 00 00 00 	nop 
    b728:	c2 07 bf f0 	ld  [ %fp + -16 ], %g1
    b72c:	c0 28 40 00 	clrb  [ %g1 ]
    b730:	c4 07 bf f0 	ld  [ %fp + -16 ], %g2
    b734:	c2 07 a0 44 	ld  [ %fp + 0x44 ], %g1
    b738:	82 20 80 01 	sub  %g2, %g1, %g1
    b73c:	b0 10 00 01 	mov  %g1, %i0
    b740:	81 e8 00 00 	restore 
    b744:	81 c3 e0 08 	retl 
    b748:	01 00 00 00 	nop 

0000b74c <uart_send_char>:
    b74c:	9d e3 bf 98 	save  %sp, -104, %sp
    b750:	82 10 00 18 	mov  %i0, %g1
    b754:	c2 2f a0 44 	stb  %g1, [ %fp + 0x44 ]
    b758:	10 80 00 03 	b  b764 <uart_send_char+0x18>
    b75c:	01 00 00 00 	nop 
    b760:	01 00 00 00 	nop 
    b764:	c2 0f a0 44 	ldub  [ %fp + 0x44 ], %g1
    b768:	83 28 60 18 	sll  %g1, 0x18, %g1
    b76c:	83 38 60 18 	sra  %g1, 0x18, %g1
    b770:	90 10 00 01 	mov  %g1, %o0
    b774:	7f ff f6 d5 	call  92c8 <__ajit_serial_putchar__>
    b778:	01 00 00 00 	nop 
    b77c:	d0 27 bf fc 	st  %o0, [ %fp + -4 ]
    b780:	c2 07 bf fc 	ld  [ %fp + -4 ], %g1
    b784:	80 a0 60 00 	cmp  %g1, 0
    b788:	02 bf ff f6 	be  b760 <uart_send_char+0x14>
    b78c:	01 00 00 00 	nop 
    b790:	01 00 00 00 	nop 
    b794:	10 80 00 03 	b  b7a0 <uart_send_char+0x54>
    b798:	01 00 00 00 	nop 
    b79c:	01 00 00 00 	nop 
    b7a0:	c0 27 bf f8 	clr  [ %fp + -8 ]
    b7a4:	03 3f ff cc 	sethi  %hi(0xffff3000), %g1
    b7a8:	82 10 62 00 	or  %g1, 0x200, %g1	! ffff3200 <syncLockVars+0xfffe27c8>
    b7ac:	fa 80 44 00 	lda  [ %g1 ] #ASI_SCRATCHPAD, %i5
    b7b0:	fa 27 bf f8 	st  %i5, [ %fp + -8 ]
    b7b4:	c2 07 bf f8 	ld  [ %fp + -8 ], %g1
    b7b8:	82 08 60 08 	and  %g1, 8, %g1
    b7bc:	80 a0 60 00 	cmp  %g1, 0
    b7c0:	02 80 00 07 	be  b7dc <uart_send_char+0x90>
    b7c4:	01 00 00 00 	nop 
    b7c8:	c2 07 bf f8 	ld  [ %fp + -8 ], %g1
    b7cc:	82 08 60 01 	and  %g1, 1, %g1
    b7d0:	80 a0 60 00 	cmp  %g1, 0
    b7d4:	12 bf ff f2 	bne  b79c <uart_send_char+0x50>
    b7d8:	01 00 00 00 	nop 
    b7dc:	81 e8 00 00 	restore 
    b7e0:	81 c3 e0 08 	retl 
    b7e4:	01 00 00 00 	nop 

0000b7e8 <ee_printf>:
    b7e8:	9d e3 bb 90 	save  %sp, -1136, %sp
    b7ec:	f2 27 a0 48 	st  %i1, [ %fp + 0x48 ]
    b7f0:	f4 27 a0 4c 	st  %i2, [ %fp + 0x4c ]
    b7f4:	f6 27 a0 50 	st  %i3, [ %fp + 0x50 ]
    b7f8:	f8 27 a0 54 	st  %i4, [ %fp + 0x54 ]
    b7fc:	fa 27 a0 58 	st  %i5, [ %fp + 0x58 ]
    b800:	f0 27 a0 44 	st  %i0, [ %fp + 0x44 ]
    b804:	c0 27 bf f8 	clr  [ %fp + -8 ]
    b808:	82 07 a0 48 	add  %fp, 0x48, %g1
    b80c:	c2 27 bb f4 	st  %g1, [ %fp + -1036 ]
    b810:	c2 07 bb f4 	ld  [ %fp + -1036 ], %g1
    b814:	84 07 bb f8 	add  %fp, -1032, %g2
    b818:	90 10 00 02 	mov  %g2, %o0
    b81c:	d2 07 a0 44 	ld  [ %fp + 0x44 ], %o1
    b820:	94 10 00 01 	mov  %g1, %o2
    b824:	7f ff fd bf 	call  af20 <ee_vsprintf>
    b828:	01 00 00 00 	nop 
    b82c:	82 07 bb f8 	add  %fp, -1032, %g1
    b830:	c2 27 bf fc 	st  %g1, [ %fp + -4 ]
    b834:	10 80 00 0f 	b  b870 <ee_printf+0x88>
    b838:	01 00 00 00 	nop 
    b83c:	c2 07 bf fc 	ld  [ %fp + -4 ], %g1
    b840:	c2 08 40 00 	ldub  [ %g1 ], %g1
    b844:	83 28 60 18 	sll  %g1, 0x18, %g1
    b848:	83 38 60 18 	sra  %g1, 0x18, %g1
    b84c:	90 10 00 01 	mov  %g1, %o0
    b850:	7f ff ff bf 	call  b74c <uart_send_char>
    b854:	01 00 00 00 	nop 
    b858:	c2 07 bf f8 	ld  [ %fp + -8 ], %g1
    b85c:	82 00 60 01 	inc  %g1
    b860:	c2 27 bf f8 	st  %g1, [ %fp + -8 ]
    b864:	c2 07 bf fc 	ld  [ %fp + -4 ], %g1
    b868:	82 00 60 01 	inc  %g1
    b86c:	c2 27 bf fc 	st  %g1, [ %fp + -4 ]
    b870:	c2 07 bf fc 	ld  [ %fp + -4 ], %g1
    b874:	c2 08 40 00 	ldub  [ %g1 ], %g1
    b878:	83 28 60 18 	sll  %g1, 0x18, %g1
    b87c:	83 38 60 18 	sra  %g1, 0x18, %g1
    b880:	80 a0 60 00 	cmp  %g1, 0
    b884:	12 bf ff ee 	bne  b83c <ee_printf+0x54>
    b888:	01 00 00 00 	nop 
    b88c:	c2 07 bf f8 	ld  [ %fp + -8 ], %g1
    b890:	b0 10 00 01 	mov  %g1, %i0
    b894:	81 e8 00 00 	restore 
    b898:	81 c3 e0 08 	retl 
    b89c:	01 00 00 00 	nop 

0000b8a0 <absoluteValue>:
    b8a0:	9d e3 bf 98 	save  %sp, -104, %sp
    b8a4:	f0 3f bf f8 	std  %i0, [ %fp + -8 ]
    b8a8:	d5 1f bf f8 	ldd  [ %fp + -8 ], %f10
    b8ac:	03 00 00 42 	sethi  %hi(0x10800), %g1
    b8b0:	82 10 60 98 	or  %g1, 0x98, %g1	! 10898 <PAGE_TABLE_BASE+0x498>
    b8b4:	d1 18 40 00 	ldd  [ %g1 ], %f8
    b8b8:	81 aa 8a c8 	fcmped  %f10, %f8
    b8bc:	01 00 00 00 	nop 
    b8c0:	19 80 00 05 	fbuge  b8d4 <absoluteValue+0x34>
    b8c4:	01 00 00 00 	nop 
    b8c8:	d1 1f bf f8 	ldd  [ %fp + -8 ], %f8
    b8cc:	91 a0 00 a8 	fnegs  %f8, %f8
    b8d0:	d1 3f bf f8 	std  %f8, [ %fp + -8 ]
    b8d4:	d1 1f bf f8 	ldd  [ %fp + -8 ], %f8
    b8d8:	81 a0 00 28 	fmovs  %f8, %f0
    b8dc:	83 a0 00 29 	fmovs  %f9, %f1
    b8e0:	81 e8 00 00 	restore 
    b8e4:	81 c3 e0 08 	retl 
    b8e8:	01 00 00 00 	nop 

0000b8ec <square_root>:
    b8ec:	9d e3 bf 88 	save  %sp, -120, %sp
    b8f0:	f0 3f bf f0 	std  %i0, [ %fp + -16 ]
    b8f4:	03 00 00 42 	sethi  %hi(0x10800), %g1
    b8f8:	82 10 60 a0 	or  %g1, 0xa0, %g1	! 108a0 <PAGE_TABLE_BASE+0x4a0>
    b8fc:	d1 18 40 00 	ldd  [ %g1 ], %f8
    b900:	d1 3f bf f8 	std  %f8, [ %fp + -8 ]
    b904:	10 80 00 0c 	b  b934 <square_root+0x48>
    b908:	01 00 00 00 	nop 
    b90c:	d5 1f bf f0 	ldd  [ %fp + -16 ], %f10
    b910:	d1 1f bf f8 	ldd  [ %fp + -8 ], %f8
    b914:	95 a2 89 c8 	fdivd  %f10, %f8, %f10
    b918:	d1 1f bf f8 	ldd  [ %fp + -8 ], %f8
    b91c:	95 a2 88 48 	faddd  %f10, %f8, %f10
    b920:	03 00 00 42 	sethi  %hi(0x10800), %g1
    b924:	82 10 60 a8 	or  %g1, 0xa8, %g1	! 108a8 <PAGE_TABLE_BASE+0x4a8>
    b928:	d1 18 40 00 	ldd  [ %g1 ], %f8
    b92c:	91 a2 89 c8 	fdivd  %f10, %f8, %f8
    b930:	d1 3f bf f8 	std  %f8, [ %fp + -8 ]
    b934:	d5 1f bf f8 	ldd  [ %fp + -8 ], %f10
    b938:	d1 1f bf f8 	ldd  [ %fp + -8 ], %f8
    b93c:	95 a2 89 48 	fmuld  %f10, %f8, %f10
    b940:	d1 1f bf f0 	ldd  [ %fp + -16 ], %f8
    b944:	95 a2 89 c8 	fdivd  %f10, %f8, %f10
    b948:	03 00 00 42 	sethi  %hi(0x10800), %g1
    b94c:	82 10 60 a0 	or  %g1, 0xa0, %g1	! 108a0 <PAGE_TABLE_BASE+0x4a0>
    b950:	d1 18 40 00 	ldd  [ %g1 ], %f8
    b954:	91 a2 88 c8 	fsubd  %f10, %f8, %f8
    b958:	d1 3f bf e8 	std  %f8, [ %fp + -24 ]
    b95c:	d0 1f bf e8 	ldd  [ %fp + -24 ], %o0
    b960:	7f ff ff d0 	call  b8a0 <absoluteValue>
    b964:	01 00 00 00 	nop 
    b968:	95 a0 00 20 	fmovs  %f0, %f10
    b96c:	97 a0 00 21 	fmovs  %f1, %f11
    b970:	03 00 00 42 	sethi  %hi(0x10800), %g1
    b974:	82 10 60 b0 	or  %g1, 0xb0, %g1	! 108b0 <PAGE_TABLE_BASE+0x4b0>
    b978:	d1 18 40 00 	ldd  [ %g1 ], %f8
    b97c:	81 aa 8a c8 	fcmped  %f10, %f8
    b980:	01 00 00 00 	nop 
    b984:	17 bf ff e2 	fbge  b90c <square_root+0x20>
    b988:	01 00 00 00 	nop 
    b98c:	d1 1f bf f8 	ldd  [ %fp + -8 ], %f8
    b990:	81 a0 00 28 	fmovs  %f8, %f0
    b994:	83 a0 00 29 	fmovs  %f9, %f1
    b998:	81 e8 00 00 	restore 
    b99c:	81 c3 e0 08 	retl 
    b9a0:	01 00 00 00 	nop 

0000b9a4 <Vec_construct>:
    b9a4:	9d e3 bf 88 	save  %sp, -120, %sp
    b9a8:	f0 27 a0 44 	st  %i0, [ %fp + 0x44 ]
    b9ac:	f2 27 bf f8 	st  %i1, [ %fp + -8 ]
    b9b0:	f4 27 bf fc 	st  %i2, [ %fp + -4 ]
    b9b4:	f6 27 bf f0 	st  %i3, [ %fp + -16 ]
    b9b8:	f8 27 bf f4 	st  %i4, [ %fp + -12 ]
    b9bc:	fa 27 a0 58 	st  %i5, [ %fp + 0x58 ]
    b9c0:	c2 07 a0 58 	ld  [ %fp + 0x58 ], %g1
    b9c4:	c2 27 bf e8 	st  %g1, [ %fp + -24 ]
    b9c8:	c2 07 a0 5c 	ld  [ %fp + 0x5c ], %g1
    b9cc:	c2 27 bf ec 	st  %g1, [ %fp + -20 ]
    b9d0:	c2 07 a0 44 	ld  [ %fp + 0x44 ], %g1
    b9d4:	d1 1f bf f8 	ldd  [ %fp + -8 ], %f8
    b9d8:	d1 38 40 00 	std  %f8, [ %g1 ]
    b9dc:	c2 07 a0 44 	ld  [ %fp + 0x44 ], %g1
    b9e0:	d1 1f bf f0 	ldd  [ %fp + -16 ], %f8
    b9e4:	d1 38 60 08 	std  %f8, [ %g1 + 8 ]
    b9e8:	c2 07 a0 44 	ld  [ %fp + 0x44 ], %g1
    b9ec:	d1 1f bf e8 	ldd  [ %fp + -24 ], %f8
    b9f0:	d1 38 60 10 	std  %f8, [ %g1 + 0x10 ]
    b9f4:	81 e8 00 00 	restore 
    b9f8:	81 c3 e0 08 	retl 
    b9fc:	01 00 00 00 	nop 

0000ba00 <cross>:
    ba00:	9d e3 bf a0 	save  %sp, -96, %sp
    ba04:	f0 27 a0 44 	st  %i0, [ %fp + 0x44 ]
    ba08:	f2 27 a0 48 	st  %i1, [ %fp + 0x48 ]
    ba0c:	f4 27 a0 4c 	st  %i2, [ %fp + 0x4c ]
    ba10:	c2 07 a0 48 	ld  [ %fp + 0x48 ], %g1
    ba14:	d5 18 60 08 	ldd  [ %g1 + 8 ], %f10
    ba18:	c2 07 a0 4c 	ld  [ %fp + 0x4c ], %g1
    ba1c:	d1 18 60 10 	ldd  [ %g1 + 0x10 ], %f8
    ba20:	95 a2 89 48 	fmuld  %f10, %f8, %f10
    ba24:	c2 07 a0 48 	ld  [ %fp + 0x48 ], %g1
    ba28:	d9 18 60 10 	ldd  [ %g1 + 0x10 ], %f12
    ba2c:	c2 07 a0 4c 	ld  [ %fp + 0x4c ], %g1
    ba30:	d1 18 60 08 	ldd  [ %g1 + 8 ], %f8
    ba34:	91 a3 09 48 	fmuld  %f12, %f8, %f8
    ba38:	91 a2 88 c8 	fsubd  %f10, %f8, %f8
    ba3c:	c2 07 a0 44 	ld  [ %fp + 0x44 ], %g1
    ba40:	d1 38 40 00 	std  %f8, [ %g1 ]
    ba44:	c2 07 a0 48 	ld  [ %fp + 0x48 ], %g1
    ba48:	d5 18 60 10 	ldd  [ %g1 + 0x10 ], %f10
    ba4c:	c2 07 a0 4c 	ld  [ %fp + 0x4c ], %g1
    ba50:	d1 18 40 00 	ldd  [ %g1 ], %f8
    ba54:	95 a2 89 48 	fmuld  %f10, %f8, %f10
    ba58:	c2 07 a0 48 	ld  [ %fp + 0x48 ], %g1
    ba5c:	d9 18 40 00 	ldd  [ %g1 ], %f12
    ba60:	c2 07 a0 4c 	ld  [ %fp + 0x4c ], %g1
    ba64:	d1 18 60 10 	ldd  [ %g1 + 0x10 ], %f8
    ba68:	91 a3 09 48 	fmuld  %f12, %f8, %f8
    ba6c:	91 a2 88 c8 	fsubd  %f10, %f8, %f8
    ba70:	c2 07 a0 44 	ld  [ %fp + 0x44 ], %g1
    ba74:	d1 38 60 08 	std  %f8, [ %g1 + 8 ]
    ba78:	c2 07 a0 48 	ld  [ %fp + 0x48 ], %g1
    ba7c:	d5 18 40 00 	ldd  [ %g1 ], %f10
    ba80:	c2 07 a0 4c 	ld  [ %fp + 0x4c ], %g1
    ba84:	d1 18 60 08 	ldd  [ %g1 + 8 ], %f8
    ba88:	95 a2 89 48 	fmuld  %f10, %f8, %f10
    ba8c:	c2 07 a0 48 	ld  [ %fp + 0x48 ], %g1
    ba90:	d9 18 60 08 	ldd  [ %g1 + 8 ], %f12
    ba94:	c2 07 a0 4c 	ld  [ %fp + 0x4c ], %g1
    ba98:	d1 18 40 00 	ldd  [ %g1 ], %f8
    ba9c:	91 a3 09 48 	fmuld  %f12, %f8, %f8
    baa0:	91 a2 88 c8 	fsubd  %f10, %f8, %f8
    baa4:	c2 07 a0 44 	ld  [ %fp + 0x44 ], %g1
    baa8:	d1 38 60 10 	std  %f8, [ %g1 + 0x10 ]
    baac:	81 e8 00 00 	restore 
    bab0:	81 c3 e0 08 	retl 
    bab4:	01 00 00 00 	nop 

0000bab8 <dot>:
    bab8:	9d e3 bf a0 	save  %sp, -96, %sp
    babc:	f0 27 a0 44 	st  %i0, [ %fp + 0x44 ]
    bac0:	f2 27 a0 48 	st  %i1, [ %fp + 0x48 ]
    bac4:	c2 07 a0 44 	ld  [ %fp + 0x44 ], %g1
    bac8:	d5 18 40 00 	ldd  [ %g1 ], %f10
    bacc:	c2 07 a0 48 	ld  [ %fp + 0x48 ], %g1
    bad0:	d1 18 40 00 	ldd  [ %g1 ], %f8
    bad4:	95 a2 89 48 	fmuld  %f10, %f8, %f10
    bad8:	c2 07 a0 44 	ld  [ %fp + 0x44 ], %g1
    badc:	d9 18 60 08 	ldd  [ %g1 + 8 ], %f12
    bae0:	c2 07 a0 48 	ld  [ %fp + 0x48 ], %g1
    bae4:	d1 18 60 08 	ldd  [ %g1 + 8 ], %f8
    bae8:	91 a3 09 48 	fmuld  %f12, %f8, %f8
    baec:	95 a2 88 48 	faddd  %f10, %f8, %f10
    baf0:	c2 07 a0 44 	ld  [ %fp + 0x44 ], %g1
    baf4:	d9 18 60 10 	ldd  [ %g1 + 0x10 ], %f12
    baf8:	c2 07 a0 48 	ld  [ %fp + 0x48 ], %g1
    bafc:	d1 18 60 10 	ldd  [ %g1 + 0x10 ], %f8
    bb00:	91 a3 09 48 	fmuld  %f12, %f8, %f8
    bb04:	91 a2 88 48 	faddd  %f10, %f8, %f8
    bb08:	81 a0 00 28 	fmovs  %f8, %f0
    bb0c:	83 a0 00 29 	fmovs  %f9, %f1
    bb10:	81 e8 00 00 	restore 
    bb14:	81 c3 e0 08 	retl 
    bb18:	01 00 00 00 	nop 

0000bb1c <scale_vec>:
    bb1c:	9d e3 bf 98 	save  %sp, -104, %sp
    bb20:	f0 27 a0 44 	st  %i0, [ %fp + 0x44 ]
    bb24:	f2 27 bf f8 	st  %i1, [ %fp + -8 ]
    bb28:	f4 27 bf fc 	st  %i2, [ %fp + -4 ]
    bb2c:	c2 07 a0 44 	ld  [ %fp + 0x44 ], %g1
    bb30:	d5 18 40 00 	ldd  [ %g1 ], %f10
    bb34:	d1 1f bf f8 	ldd  [ %fp + -8 ], %f8
    bb38:	91 a2 89 48 	fmuld  %f10, %f8, %f8
    bb3c:	c2 07 a0 44 	ld  [ %fp + 0x44 ], %g1
    bb40:	d1 38 40 00 	std  %f8, [ %g1 ]
    bb44:	c2 07 a0 44 	ld  [ %fp + 0x44 ], %g1
    bb48:	d5 18 60 08 	ldd  [ %g1 + 8 ], %f10
    bb4c:	d1 1f bf f8 	ldd  [ %fp + -8 ], %f8
    bb50:	91 a2 89 48 	fmuld  %f10, %f8, %f8
    bb54:	c2 07 a0 44 	ld  [ %fp + 0x44 ], %g1
    bb58:	d1 38 60 08 	std  %f8, [ %g1 + 8 ]
    bb5c:	c2 07 a0 44 	ld  [ %fp + 0x44 ], %g1
    bb60:	d5 18 60 10 	ldd  [ %g1 + 0x10 ], %f10
    bb64:	d1 1f bf f8 	ldd  [ %fp + -8 ], %f8
    bb68:	91 a2 89 48 	fmuld  %f10, %f8, %f8
    bb6c:	c2 07 a0 44 	ld  [ %fp + 0x44 ], %g1
    bb70:	d1 38 60 10 	std  %f8, [ %g1 + 0x10 ]
    bb74:	81 e8 00 00 	restore 
    bb78:	81 c3 e0 08 	retl 
    bb7c:	01 00 00 00 	nop 

0000bb80 <add_vec>:
    bb80:	9d e3 bf a0 	save  %sp, -96, %sp
    bb84:	f0 27 a0 44 	st  %i0, [ %fp + 0x44 ]
    bb88:	f2 27 a0 48 	st  %i1, [ %fp + 0x48 ]
    bb8c:	f4 27 a0 4c 	st  %i2, [ %fp + 0x4c ]
    bb90:	c2 07 a0 48 	ld  [ %fp + 0x48 ], %g1
    bb94:	d5 18 40 00 	ldd  [ %g1 ], %f10
    bb98:	c2 07 a0 4c 	ld  [ %fp + 0x4c ], %g1
    bb9c:	d1 18 40 00 	ldd  [ %g1 ], %f8
    bba0:	91 a2 88 48 	faddd  %f10, %f8, %f8
    bba4:	c2 07 a0 44 	ld  [ %fp + 0x44 ], %g1
    bba8:	d1 38 40 00 	std  %f8, [ %g1 ]
    bbac:	c2 07 a0 48 	ld  [ %fp + 0x48 ], %g1
    bbb0:	d5 18 60 08 	ldd  [ %g1 + 8 ], %f10
    bbb4:	c2 07 a0 4c 	ld  [ %fp + 0x4c ], %g1
    bbb8:	d1 18 60 08 	ldd  [ %g1 + 8 ], %f8
    bbbc:	91 a2 88 48 	faddd  %f10, %f8, %f8
    bbc0:	c2 07 a0 44 	ld  [ %fp + 0x44 ], %g1
    bbc4:	d1 38 60 08 	std  %f8, [ %g1 + 8 ]
    bbc8:	c2 07 a0 48 	ld  [ %fp + 0x48 ], %g1
    bbcc:	d5 18 60 10 	ldd  [ %g1 + 0x10 ], %f10
    bbd0:	c2 07 a0 4c 	ld  [ %fp + 0x4c ], %g1
    bbd4:	d1 18 60 10 	ldd  [ %g1 + 0x10 ], %f8
    bbd8:	91 a2 88 48 	faddd  %f10, %f8, %f8
    bbdc:	c2 07 a0 44 	ld  [ %fp + 0x44 ], %g1
    bbe0:	d1 38 60 10 	std  %f8, [ %g1 + 0x10 ]
    bbe4:	81 e8 00 00 	restore 
    bbe8:	81 c3 e0 08 	retl 
    bbec:	01 00 00 00 	nop 

0000bbf0 <matrix_construct>:
    bbf0:	9d e3 bf 98 	save  %sp, -104, %sp
    bbf4:	f0 27 a0 44 	st  %i0, [ %fp + 0x44 ]
    bbf8:	82 10 00 19 	mov  %i1, %g1
    bbfc:	c2 2f a0 48 	stb  %g1, [ %fp + 0x48 ]
    bc00:	c2 0f a0 48 	ldub  [ %fp + 0x48 ], %g1
    bc04:	82 08 60 ff 	and  %g1, 0xff, %g1
    bc08:	80 a0 60 00 	cmp  %g1, 0
    bc0c:	12 80 00 29 	bne  bcb0 <matrix_construct+0xc0>
    bc10:	01 00 00 00 	nop 
    bc14:	c0 2f bf ff 	clrb  [ %fp + -1 ]
    bc18:	c0 2f bf fe 	clrb  [ %fp + -2 ]
    bc1c:	c0 2f bf ff 	clrb  [ %fp + -1 ]
    bc20:	10 80 00 1f 	b  bc9c <matrix_construct+0xac>
    bc24:	01 00 00 00 	nop 
    bc28:	c0 2f bf fe 	clrb  [ %fp + -2 ]
    bc2c:	10 80 00 14 	b  bc7c <matrix_construct+0x8c>
    bc30:	01 00 00 00 	nop 
    bc34:	c2 0f bf ff 	ldub  [ %fp + -1 ], %g1
    bc38:	84 08 60 ff 	and  %g1, 0xff, %g2
    bc3c:	c2 0f bf fe 	ldub  [ %fp + -2 ], %g1
    bc40:	88 08 60 ff 	and  %g1, 0xff, %g4
    bc44:	c6 07 a0 44 	ld  [ %fp + 0x44 ], %g3
    bc48:	82 10 00 02 	mov  %g2, %g1
    bc4c:	82 00 40 01 	add  %g1, %g1, %g1
    bc50:	82 00 40 02 	add  %g1, %g2, %g1
    bc54:	82 00 40 04 	add  %g1, %g4, %g1
    bc58:	83 28 60 03 	sll  %g1, 3, %g1
    bc5c:	82 00 c0 01 	add  %g3, %g1, %g1
    bc60:	05 00 00 42 	sethi  %hi(0x10800), %g2
    bc64:	84 10 a0 b8 	or  %g2, 0xb8, %g2	! 108b8 <PAGE_TABLE_BASE+0x4b8>
    bc68:	d1 18 80 00 	ldd  [ %g2 ], %f8
    bc6c:	d1 38 40 00 	std  %f8, [ %g1 ]
    bc70:	c2 0f bf fe 	ldub  [ %fp + -2 ], %g1
    bc74:	82 00 60 01 	inc  %g1
    bc78:	c2 2f bf fe 	stb  %g1, [ %fp + -2 ]
    bc7c:	c2 0f bf fe 	ldub  [ %fp + -2 ], %g1
    bc80:	82 08 60 ff 	and  %g1, 0xff, %g1
    bc84:	80 a0 60 02 	cmp  %g1, 2
    bc88:	08 bf ff eb 	bleu  bc34 <matrix_construct+0x44>
    bc8c:	01 00 00 00 	nop 
    bc90:	c2 0f bf ff 	ldub  [ %fp + -1 ], %g1
    bc94:	82 00 60 01 	inc  %g1
    bc98:	c2 2f bf ff 	stb  %g1, [ %fp + -1 ]
    bc9c:	c2 0f bf ff 	ldub  [ %fp + -1 ], %g1
    bca0:	82 08 60 ff 	and  %g1, 0xff, %g1
    bca4:	80 a0 60 02 	cmp  %g1, 2
    bca8:	08 bf ff e0 	bleu  bc28 <matrix_construct+0x38>
    bcac:	01 00 00 00 	nop 
    bcb0:	c2 0f a0 48 	ldub  [ %fp + 0x48 ], %g1
    bcb4:	82 08 60 ff 	and  %g1, 0xff, %g1
    bcb8:	80 a0 60 01 	cmp  %g1, 1
    bcbc:	12 80 00 41 	bne  bdc0 <matrix_construct+0x1d0>
    bcc0:	01 00 00 00 	nop 
    bcc4:	c0 2f bf fd 	clrb  [ %fp + -3 ]
    bcc8:	c0 2f bf fc 	clrb  [ %fp + -4 ]
    bccc:	c0 2f bf fd 	clrb  [ %fp + -3 ]
    bcd0:	10 80 00 37 	b  bdac <matrix_construct+0x1bc>
    bcd4:	01 00 00 00 	nop 
    bcd8:	c0 2f bf fc 	clrb  [ %fp + -4 ]
    bcdc:	10 80 00 2c 	b  bd8c <matrix_construct+0x19c>
    bce0:	01 00 00 00 	nop 
    bce4:	c2 0f bf fd 	ldub  [ %fp + -3 ], %g1
    bce8:	84 08 60 ff 	and  %g1, 0xff, %g2
    bcec:	c2 0f bf fc 	ldub  [ %fp + -4 ], %g1
    bcf0:	82 08 60 ff 	and  %g1, 0xff, %g1
    bcf4:	80 a0 80 01 	cmp  %g2, %g1
    bcf8:	12 80 00 13 	bne  bd44 <matrix_construct+0x154>
    bcfc:	01 00 00 00 	nop 
    bd00:	c2 0f bf fd 	ldub  [ %fp + -3 ], %g1
    bd04:	84 08 60 ff 	and  %g1, 0xff, %g2
    bd08:	c2 0f bf fc 	ldub  [ %fp + -4 ], %g1
    bd0c:	88 08 60 ff 	and  %g1, 0xff, %g4
    bd10:	c6 07 a0 44 	ld  [ %fp + 0x44 ], %g3
    bd14:	82 10 00 02 	mov  %g2, %g1
    bd18:	82 00 40 01 	add  %g1, %g1, %g1
    bd1c:	82 00 40 02 	add  %g1, %g2, %g1
    bd20:	82 00 40 04 	add  %g1, %g4, %g1
    bd24:	83 28 60 03 	sll  %g1, 3, %g1
    bd28:	82 00 c0 01 	add  %g3, %g1, %g1
    bd2c:	05 00 00 42 	sethi  %hi(0x10800), %g2
    bd30:	84 10 a0 c0 	or  %g2, 0xc0, %g2	! 108c0 <PAGE_TABLE_BASE+0x4c0>
    bd34:	d1 18 80 00 	ldd  [ %g2 ], %f8
    bd38:	d1 38 40 00 	std  %f8, [ %g1 ]
    bd3c:	10 80 00 11 	b  bd80 <matrix_construct+0x190>
    bd40:	01 00 00 00 	nop 
    bd44:	c2 0f bf fd 	ldub  [ %fp + -3 ], %g1
    bd48:	84 08 60 ff 	and  %g1, 0xff, %g2
    bd4c:	c2 0f bf fc 	ldub  [ %fp + -4 ], %g1
    bd50:	88 08 60 ff 	and  %g1, 0xff, %g4
    bd54:	c6 07 a0 44 	ld  [ %fp + 0x44 ], %g3
    bd58:	82 10 00 02 	mov  %g2, %g1
    bd5c:	82 00 40 01 	add  %g1, %g1, %g1
    bd60:	82 00 40 02 	add  %g1, %g2, %g1
    bd64:	82 00 40 04 	add  %g1, %g4, %g1
    bd68:	83 28 60 03 	sll  %g1, 3, %g1
    bd6c:	82 00 c0 01 	add  %g3, %g1, %g1
    bd70:	05 00 00 42 	sethi  %hi(0x10800), %g2
    bd74:	84 10 a0 b8 	or  %g2, 0xb8, %g2	! 108b8 <PAGE_TABLE_BASE+0x4b8>
    bd78:	d1 18 80 00 	ldd  [ %g2 ], %f8
    bd7c:	d1 38 40 00 	std  %f8, [ %g1 ]
    bd80:	c2 0f bf fc 	ldub  [ %fp + -4 ], %g1
    bd84:	82 00 60 01 	inc  %g1
    bd88:	c2 2f bf fc 	stb  %g1, [ %fp + -4 ]
    bd8c:	c2 0f bf fc 	ldub  [ %fp + -4 ], %g1
    bd90:	82 08 60 ff 	and  %g1, 0xff, %g1
    bd94:	80 a0 60 02 	cmp  %g1, 2
    bd98:	08 bf ff d3 	bleu  bce4 <matrix_construct+0xf4>
    bd9c:	01 00 00 00 	nop 
    bda0:	c2 0f bf fd 	ldub  [ %fp + -3 ], %g1
    bda4:	82 00 60 01 	inc  %g1
    bda8:	c2 2f bf fd 	stb  %g1, [ %fp + -3 ]
    bdac:	c2 0f bf fd 	ldub  [ %fp + -3 ], %g1
    bdb0:	82 08 60 ff 	and  %g1, 0xff, %g1
    bdb4:	80 a0 60 02 	cmp  %g1, 2
    bdb8:	08 bf ff c8 	bleu  bcd8 <matrix_construct+0xe8>
    bdbc:	01 00 00 00 	nop 
    bdc0:	81 e8 00 00 	restore 
    bdc4:	81 c3 e0 08 	retl 
    bdc8:	01 00 00 00 	nop 

0000bdcc <add_matrix>:
    bdcc:	9d e3 bf 98 	save  %sp, -104, %sp
    bdd0:	f0 27 a0 44 	st  %i0, [ %fp + 0x44 ]
    bdd4:	f2 27 a0 48 	st  %i1, [ %fp + 0x48 ]
    bdd8:	f4 27 a0 4c 	st  %i2, [ %fp + 0x4c ]
    bddc:	c0 2f bf ff 	clrb  [ %fp + -1 ]
    bde0:	c0 2f bf fe 	clrb  [ %fp + -2 ]
    bde4:	c0 2f bf ff 	clrb  [ %fp + -1 ]
    bde8:	10 80 00 35 	b  bebc <add_matrix+0xf0>
    bdec:	01 00 00 00 	nop 
    bdf0:	c0 2f bf fe 	clrb  [ %fp + -2 ]
    bdf4:	10 80 00 2a 	b  be9c <add_matrix+0xd0>
    bdf8:	01 00 00 00 	nop 
    bdfc:	c2 0f bf ff 	ldub  [ %fp + -1 ], %g1
    be00:	84 08 60 ff 	and  %g1, 0xff, %g2
    be04:	c2 0f bf fe 	ldub  [ %fp + -2 ], %g1
    be08:	88 08 60 ff 	and  %g1, 0xff, %g4
    be0c:	c2 0f bf ff 	ldub  [ %fp + -1 ], %g1
    be10:	86 08 60 ff 	and  %g1, 0xff, %g3
    be14:	c2 0f bf fe 	ldub  [ %fp + -2 ], %g1
    be18:	b8 08 60 ff 	and  %g1, 0xff, %i4
    be1c:	fa 07 a0 48 	ld  [ %fp + 0x48 ], %i5
    be20:	82 10 00 03 	mov  %g3, %g1
    be24:	82 00 40 01 	add  %g1, %g1, %g1
    be28:	82 00 40 03 	add  %g1, %g3, %g1
    be2c:	82 00 40 1c 	add  %g1, %i4, %g1
    be30:	83 28 60 03 	sll  %g1, 3, %g1
    be34:	82 07 40 01 	add  %i5, %g1, %g1
    be38:	d5 18 40 00 	ldd  [ %g1 ], %f10
    be3c:	c2 0f bf ff 	ldub  [ %fp + -1 ], %g1
    be40:	86 08 60 ff 	and  %g1, 0xff, %g3
    be44:	c2 0f bf fe 	ldub  [ %fp + -2 ], %g1
    be48:	b8 08 60 ff 	and  %g1, 0xff, %i4
    be4c:	fa 07 a0 4c 	ld  [ %fp + 0x4c ], %i5
    be50:	82 10 00 03 	mov  %g3, %g1
    be54:	82 00 40 01 	add  %g1, %g1, %g1
    be58:	82 00 40 03 	add  %g1, %g3, %g1
    be5c:	82 00 40 1c 	add  %g1, %i4, %g1
    be60:	83 28 60 03 	sll  %g1, 3, %g1
    be64:	82 07 40 01 	add  %i5, %g1, %g1
    be68:	d1 18 40 00 	ldd  [ %g1 ], %f8
    be6c:	91 a2 88 48 	faddd  %f10, %f8, %f8
    be70:	c6 07 a0 44 	ld  [ %fp + 0x44 ], %g3
    be74:	82 10 00 02 	mov  %g2, %g1
    be78:	82 00 40 01 	add  %g1, %g1, %g1
    be7c:	82 00 40 02 	add  %g1, %g2, %g1
    be80:	82 00 40 04 	add  %g1, %g4, %g1
    be84:	83 28 60 03 	sll  %g1, 3, %g1
    be88:	82 00 c0 01 	add  %g3, %g1, %g1
    be8c:	d1 38 40 00 	std  %f8, [ %g1 ]
    be90:	c2 0f bf fe 	ldub  [ %fp + -2 ], %g1
    be94:	82 00 60 01 	inc  %g1
    be98:	c2 2f bf fe 	stb  %g1, [ %fp + -2 ]
    be9c:	c2 0f bf fe 	ldub  [ %fp + -2 ], %g1
    bea0:	82 08 60 ff 	and  %g1, 0xff, %g1
    bea4:	80 a0 60 02 	cmp  %g1, 2
    bea8:	08 bf ff d5 	bleu  bdfc <add_matrix+0x30>
    beac:	01 00 00 00 	nop 
    beb0:	c2 0f bf ff 	ldub  [ %fp + -1 ], %g1
    beb4:	82 00 60 01 	inc  %g1
    beb8:	c2 2f bf ff 	stb  %g1, [ %fp + -1 ]
    bebc:	c2 0f bf ff 	ldub  [ %fp + -1 ], %g1
    bec0:	82 08 60 ff 	and  %g1, 0xff, %g1
    bec4:	80 a0 60 02 	cmp  %g1, 2
    bec8:	08 bf ff ca 	bleu  bdf0 <add_matrix+0x24>
    becc:	01 00 00 00 	nop 
    bed0:	81 e8 00 00 	restore 
    bed4:	81 c3 e0 08 	retl 
    bed8:	01 00 00 00 	nop 

0000bedc <scale_matrix>:
    bedc:	9d e3 bf 90 	save  %sp, -112, %sp
    bee0:	f0 27 a0 44 	st  %i0, [ %fp + 0x44 ]
    bee4:	f2 27 a0 48 	st  %i1, [ %fp + 0x48 ]
    bee8:	f4 3f bf f0 	std  %i2, [ %fp + -16 ]
    beec:	c0 2f bf ff 	clrb  [ %fp + -1 ]
    bef0:	c0 2f bf fe 	clrb  [ %fp + -2 ]
    bef4:	c0 2f bf ff 	clrb  [ %fp + -1 ]
    bef8:	10 80 00 2a 	b  bfa0 <scale_matrix+0xc4>
    befc:	01 00 00 00 	nop 
    bf00:	c0 2f bf fe 	clrb  [ %fp + -2 ]
    bf04:	10 80 00 1f 	b  bf80 <scale_matrix+0xa4>
    bf08:	01 00 00 00 	nop 
    bf0c:	c2 0f bf ff 	ldub  [ %fp + -1 ], %g1
    bf10:	84 08 60 ff 	and  %g1, 0xff, %g2
    bf14:	c2 0f bf fe 	ldub  [ %fp + -2 ], %g1
    bf18:	88 08 60 ff 	and  %g1, 0xff, %g4
    bf1c:	c2 0f bf ff 	ldub  [ %fp + -1 ], %g1
    bf20:	86 08 60 ff 	and  %g1, 0xff, %g3
    bf24:	c2 0f bf fe 	ldub  [ %fp + -2 ], %g1
    bf28:	b8 08 60 ff 	and  %g1, 0xff, %i4
    bf2c:	fa 07 a0 48 	ld  [ %fp + 0x48 ], %i5
    bf30:	82 10 00 03 	mov  %g3, %g1
    bf34:	82 00 40 01 	add  %g1, %g1, %g1
    bf38:	82 00 40 03 	add  %g1, %g3, %g1
    bf3c:	82 00 40 1c 	add  %g1, %i4, %g1
    bf40:	83 28 60 03 	sll  %g1, 3, %g1
    bf44:	82 07 40 01 	add  %i5, %g1, %g1
    bf48:	d5 18 40 00 	ldd  [ %g1 ], %f10
    bf4c:	d1 1f bf f0 	ldd  [ %fp + -16 ], %f8
    bf50:	91 a2 89 48 	fmuld  %f10, %f8, %f8
    bf54:	c6 07 a0 44 	ld  [ %fp + 0x44 ], %g3
    bf58:	82 10 00 02 	mov  %g2, %g1
    bf5c:	82 00 40 01 	add  %g1, %g1, %g1
    bf60:	82 00 40 02 	add  %g1, %g2, %g1
    bf64:	82 00 40 04 	add  %g1, %g4, %g1
    bf68:	83 28 60 03 	sll  %g1, 3, %g1
    bf6c:	82 00 c0 01 	add  %g3, %g1, %g1
    bf70:	d1 38 40 00 	std  %f8, [ %g1 ]
    bf74:	c2 0f bf fe 	ldub  [ %fp + -2 ], %g1
    bf78:	82 00 60 01 	inc  %g1
    bf7c:	c2 2f bf fe 	stb  %g1, [ %fp + -2 ]
    bf80:	c2 0f bf fe 	ldub  [ %fp + -2 ], %g1
    bf84:	82 08 60 ff 	and  %g1, 0xff, %g1
    bf88:	80 a0 60 02 	cmp  %g1, 2
    bf8c:	08 bf ff e0 	bleu  bf0c <scale_matrix+0x30>
    bf90:	01 00 00 00 	nop 
    bf94:	c2 0f bf ff 	ldub  [ %fp + -1 ], %g1
    bf98:	82 00 60 01 	inc  %g1
    bf9c:	c2 2f bf ff 	stb  %g1, [ %fp + -1 ]
    bfa0:	c2 0f bf ff 	ldub  [ %fp + -1 ], %g1
    bfa4:	82 08 60 ff 	and  %g1, 0xff, %g1
    bfa8:	80 a0 60 02 	cmp  %g1, 2
    bfac:	08 bf ff d5 	bleu  bf00 <scale_matrix+0x24>
    bfb0:	01 00 00 00 	nop 
    bfb4:	81 e8 00 00 	restore 
    bfb8:	81 c3 e0 08 	retl 
    bfbc:	01 00 00 00 	nop 

0000bfc0 <det>:
    bfc0:	9d e3 bf 98 	save  %sp, -104, %sp
    bfc4:	f0 27 a0 44 	st  %i0, [ %fp + 0x44 ]
    bfc8:	c2 07 a0 44 	ld  [ %fp + 0x44 ], %g1
    bfcc:	d5 18 40 00 	ldd  [ %g1 ], %f10
    bfd0:	c2 07 a0 44 	ld  [ %fp + 0x44 ], %g1
    bfd4:	d9 18 60 20 	ldd  [ %g1 + 0x20 ], %f12
    bfd8:	c2 07 a0 44 	ld  [ %fp + 0x44 ], %g1
    bfdc:	d1 18 60 40 	ldd  [ %g1 + 0x40 ], %f8
    bfe0:	99 a3 09 48 	fmuld  %f12, %f8, %f12
    bfe4:	c2 07 a0 44 	ld  [ %fp + 0x44 ], %g1
    bfe8:	dd 18 60 28 	ldd  [ %g1 + 0x28 ], %f14
    bfec:	c2 07 a0 44 	ld  [ %fp + 0x44 ], %g1
    bff0:	d1 18 60 38 	ldd  [ %g1 + 0x38 ], %f8
    bff4:	91 a3 89 48 	fmuld  %f14, %f8, %f8
    bff8:	91 a3 08 c8 	fsubd  %f12, %f8, %f8
    bffc:	95 a2 89 48 	fmuld  %f10, %f8, %f10
    c000:	c2 07 a0 44 	ld  [ %fp + 0x44 ], %g1
    c004:	d9 18 60 08 	ldd  [ %g1 + 8 ], %f12
    c008:	c2 07 a0 44 	ld  [ %fp + 0x44 ], %g1
    c00c:	dd 18 60 18 	ldd  [ %g1 + 0x18 ], %f14
    c010:	c2 07 a0 44 	ld  [ %fp + 0x44 ], %g1
    c014:	d1 18 60 40 	ldd  [ %g1 + 0x40 ], %f8
    c018:	9d a3 89 48 	fmuld  %f14, %f8, %f14
    c01c:	c2 07 a0 44 	ld  [ %fp + 0x44 ], %g1
    c020:	e1 18 60 28 	ldd  [ %g1 + 0x28 ], %f16
    c024:	c2 07 a0 44 	ld  [ %fp + 0x44 ], %g1
    c028:	d1 18 60 30 	ldd  [ %g1 + 0x30 ], %f8
    c02c:	91 a4 09 48 	fmuld  %f16, %f8, %f8
    c030:	91 a3 88 c8 	fsubd  %f14, %f8, %f8
    c034:	91 a3 09 48 	fmuld  %f12, %f8, %f8
    c038:	95 a2 88 c8 	fsubd  %f10, %f8, %f10
    c03c:	c2 07 a0 44 	ld  [ %fp + 0x44 ], %g1
    c040:	d9 18 60 10 	ldd  [ %g1 + 0x10 ], %f12
    c044:	c2 07 a0 44 	ld  [ %fp + 0x44 ], %g1
    c048:	dd 18 60 18 	ldd  [ %g1 + 0x18 ], %f14
    c04c:	c2 07 a0 44 	ld  [ %fp + 0x44 ], %g1
    c050:	d1 18 60 38 	ldd  [ %g1 + 0x38 ], %f8
    c054:	9d a3 89 48 	fmuld  %f14, %f8, %f14
    c058:	c2 07 a0 44 	ld  [ %fp + 0x44 ], %g1
    c05c:	e1 18 60 20 	ldd  [ %g1 + 0x20 ], %f16
    c060:	c2 07 a0 44 	ld  [ %fp + 0x44 ], %g1
    c064:	d1 18 60 30 	ldd  [ %g1 + 0x30 ], %f8
    c068:	91 a4 09 48 	fmuld  %f16, %f8, %f8
    c06c:	91 a3 88 c8 	fsubd  %f14, %f8, %f8
    c070:	91 a3 09 48 	fmuld  %f12, %f8, %f8
    c074:	91 a2 88 48 	faddd  %f10, %f8, %f8
    c078:	d1 3f bf f8 	std  %f8, [ %fp + -8 ]
    c07c:	d1 1f bf f8 	ldd  [ %fp + -8 ], %f8
    c080:	81 a0 00 28 	fmovs  %f8, %f0
    c084:	83 a0 00 29 	fmovs  %f9, %f1
    c088:	81 e8 00 00 	restore 
    c08c:	81 c3 e0 08 	retl 
    c090:	01 00 00 00 	nop 

0000c094 <trace>:
    c094:	9d e3 bf a0 	save  %sp, -96, %sp
    c098:	f0 27 a0 44 	st  %i0, [ %fp + 0x44 ]
    c09c:	c2 07 a0 44 	ld  [ %fp + 0x44 ], %g1
    c0a0:	d5 18 40 00 	ldd  [ %g1 ], %f10
    c0a4:	c2 07 a0 44 	ld  [ %fp + 0x44 ], %g1
    c0a8:	d1 18 60 20 	ldd  [ %g1 + 0x20 ], %f8
    c0ac:	95 a2 88 48 	faddd  %f10, %f8, %f10
    c0b0:	c2 07 a0 44 	ld  [ %fp + 0x44 ], %g1
    c0b4:	d1 18 60 40 	ldd  [ %g1 + 0x40 ], %f8
    c0b8:	91 a2 88 48 	faddd  %f10, %f8, %f8
    c0bc:	81 a0 00 28 	fmovs  %f8, %f0
    c0c0:	83 a0 00 29 	fmovs  %f9, %f1
    c0c4:	81 e8 00 00 	restore 
    c0c8:	81 c3 e0 08 	retl 
    c0cc:	01 00 00 00 	nop 

0000c0d0 <T>:
    c0d0:	9d e3 bf 98 	save  %sp, -104, %sp
    c0d4:	f0 27 a0 44 	st  %i0, [ %fp + 0x44 ]
    c0d8:	f2 27 a0 48 	st  %i1, [ %fp + 0x48 ]
    c0dc:	c0 2f bf ff 	clrb  [ %fp + -1 ]
    c0e0:	c0 2f bf fe 	clrb  [ %fp + -2 ]
    c0e4:	c0 2f bf ff 	clrb  [ %fp + -1 ]
    c0e8:	10 80 00 28 	b  c188 <T+0xb8>
    c0ec:	01 00 00 00 	nop 
    c0f0:	c0 2f bf fe 	clrb  [ %fp + -2 ]
    c0f4:	10 80 00 1d 	b  c168 <T+0x98>
    c0f8:	01 00 00 00 	nop 
    c0fc:	c2 0f bf ff 	ldub  [ %fp + -1 ], %g1
    c100:	84 08 60 ff 	and  %g1, 0xff, %g2
    c104:	c2 0f bf fe 	ldub  [ %fp + -2 ], %g1
    c108:	88 08 60 ff 	and  %g1, 0xff, %g4
    c10c:	c2 0f bf fe 	ldub  [ %fp + -2 ], %g1
    c110:	86 08 60 ff 	and  %g1, 0xff, %g3
    c114:	c2 0f bf ff 	ldub  [ %fp + -1 ], %g1
    c118:	b8 08 60 ff 	and  %g1, 0xff, %i4
    c11c:	fa 07 a0 48 	ld  [ %fp + 0x48 ], %i5
    c120:	82 10 00 03 	mov  %g3, %g1
    c124:	82 00 40 01 	add  %g1, %g1, %g1
    c128:	82 00 40 03 	add  %g1, %g3, %g1
    c12c:	82 00 40 1c 	add  %g1, %i4, %g1
    c130:	83 28 60 03 	sll  %g1, 3, %g1
    c134:	82 07 40 01 	add  %i5, %g1, %g1
    c138:	d1 18 40 00 	ldd  [ %g1 ], %f8
    c13c:	c6 07 a0 44 	ld  [ %fp + 0x44 ], %g3
    c140:	82 10 00 02 	mov  %g2, %g1
    c144:	82 00 40 01 	add  %g1, %g1, %g1
    c148:	82 00 40 02 	add  %g1, %g2, %g1
    c14c:	82 00 40 04 	add  %g1, %g4, %g1
    c150:	83 28 60 03 	sll  %g1, 3, %g1
    c154:	82 00 c0 01 	add  %g3, %g1, %g1
    c158:	d1 38 40 00 	std  %f8, [ %g1 ]
    c15c:	c2 0f bf fe 	ldub  [ %fp + -2 ], %g1
    c160:	82 00 60 01 	inc  %g1
    c164:	c2 2f bf fe 	stb  %g1, [ %fp + -2 ]
    c168:	c2 0f bf fe 	ldub  [ %fp + -2 ], %g1
    c16c:	82 08 60 ff 	and  %g1, 0xff, %g1
    c170:	80 a0 60 02 	cmp  %g1, 2
    c174:	08 bf ff e2 	bleu  c0fc <T+0x2c>
    c178:	01 00 00 00 	nop 
    c17c:	c2 0f bf ff 	ldub  [ %fp + -1 ], %g1
    c180:	82 00 60 01 	inc  %g1
    c184:	c2 2f bf ff 	stb  %g1, [ %fp + -1 ]
    c188:	c2 0f bf ff 	ldub  [ %fp + -1 ], %g1
    c18c:	82 08 60 ff 	and  %g1, 0xff, %g1
    c190:	80 a0 60 02 	cmp  %g1, 2
    c194:	08 bf ff d7 	bleu  c0f0 <T+0x20>
    c198:	01 00 00 00 	nop 
    c19c:	81 e8 00 00 	restore 
    c1a0:	81 c3 e0 08 	retl 
    c1a4:	01 00 00 00 	nop 

0000c1a8 <adjoint>:
    c1a8:	9d e3 bf a0 	save  %sp, -96, %sp
    c1ac:	f0 27 a0 44 	st  %i0, [ %fp + 0x44 ]
    c1b0:	f2 27 a0 48 	st  %i1, [ %fp + 0x48 ]
    c1b4:	c2 07 a0 48 	ld  [ %fp + 0x48 ], %g1
    c1b8:	d5 18 60 20 	ldd  [ %g1 + 0x20 ], %f10
    c1bc:	c2 07 a0 48 	ld  [ %fp + 0x48 ], %g1
    c1c0:	d1 18 60 40 	ldd  [ %g1 + 0x40 ], %f8
    c1c4:	95 a2 89 48 	fmuld  %f10, %f8, %f10
    c1c8:	c2 07 a0 48 	ld  [ %fp + 0x48 ], %g1
    c1cc:	d9 18 60 28 	ldd  [ %g1 + 0x28 ], %f12
    c1d0:	c2 07 a0 48 	ld  [ %fp + 0x48 ], %g1
    c1d4:	d1 18 60 38 	ldd  [ %g1 + 0x38 ], %f8
    c1d8:	91 a3 09 48 	fmuld  %f12, %f8, %f8
    c1dc:	91 a2 88 c8 	fsubd  %f10, %f8, %f8
    c1e0:	c2 07 a0 44 	ld  [ %fp + 0x44 ], %g1
    c1e4:	d1 38 40 00 	std  %f8, [ %g1 ]
    c1e8:	c2 07 a0 48 	ld  [ %fp + 0x48 ], %g1
    c1ec:	d5 18 60 28 	ldd  [ %g1 + 0x28 ], %f10
    c1f0:	c2 07 a0 48 	ld  [ %fp + 0x48 ], %g1
    c1f4:	d1 18 60 30 	ldd  [ %g1 + 0x30 ], %f8
    c1f8:	95 a2 89 48 	fmuld  %f10, %f8, %f10
    c1fc:	c2 07 a0 48 	ld  [ %fp + 0x48 ], %g1
    c200:	d9 18 60 18 	ldd  [ %g1 + 0x18 ], %f12
    c204:	c2 07 a0 48 	ld  [ %fp + 0x48 ], %g1
    c208:	d1 18 60 40 	ldd  [ %g1 + 0x40 ], %f8
    c20c:	91 a3 09 48 	fmuld  %f12, %f8, %f8
    c210:	91 a2 88 c8 	fsubd  %f10, %f8, %f8
    c214:	c2 07 a0 44 	ld  [ %fp + 0x44 ], %g1
    c218:	d1 38 60 18 	std  %f8, [ %g1 + 0x18 ]
    c21c:	c2 07 a0 48 	ld  [ %fp + 0x48 ], %g1
    c220:	d5 18 60 18 	ldd  [ %g1 + 0x18 ], %f10
    c224:	c2 07 a0 48 	ld  [ %fp + 0x48 ], %g1
    c228:	d1 18 60 38 	ldd  [ %g1 + 0x38 ], %f8
    c22c:	95 a2 89 48 	fmuld  %f10, %f8, %f10
    c230:	c2 07 a0 48 	ld  [ %fp + 0x48 ], %g1
    c234:	d9 18 60 30 	ldd  [ %g1 + 0x30 ], %f12
    c238:	c2 07 a0 48 	ld  [ %fp + 0x48 ], %g1
    c23c:	d1 18 60 20 	ldd  [ %g1 + 0x20 ], %f8
    c240:	91 a3 09 48 	fmuld  %f12, %f8, %f8
    c244:	91 a2 88 c8 	fsubd  %f10, %f8, %f8
    c248:	c2 07 a0 44 	ld  [ %fp + 0x44 ], %g1
    c24c:	d1 38 60 30 	std  %f8, [ %g1 + 0x30 ]
    c250:	c2 07 a0 48 	ld  [ %fp + 0x48 ], %g1
    c254:	d5 18 60 38 	ldd  [ %g1 + 0x38 ], %f10
    c258:	c2 07 a0 48 	ld  [ %fp + 0x48 ], %g1
    c25c:	d1 18 60 10 	ldd  [ %g1 + 0x10 ], %f8
    c260:	95 a2 89 48 	fmuld  %f10, %f8, %f10
    c264:	c2 07 a0 48 	ld  [ %fp + 0x48 ], %g1
    c268:	d9 18 60 08 	ldd  [ %g1 + 8 ], %f12
    c26c:	c2 07 a0 48 	ld  [ %fp + 0x48 ], %g1
    c270:	d1 18 60 40 	ldd  [ %g1 + 0x40 ], %f8
    c274:	91 a3 09 48 	fmuld  %f12, %f8, %f8
    c278:	91 a2 88 c8 	fsubd  %f10, %f8, %f8
    c27c:	c2 07 a0 44 	ld  [ %fp + 0x44 ], %g1
    c280:	d1 38 60 08 	std  %f8, [ %g1 + 8 ]
    c284:	c2 07 a0 48 	ld  [ %fp + 0x48 ], %g1
    c288:	d5 18 40 00 	ldd  [ %g1 ], %f10
    c28c:	c2 07 a0 48 	ld  [ %fp + 0x48 ], %g1
    c290:	d1 18 60 40 	ldd  [ %g1 + 0x40 ], %f8
    c294:	95 a2 89 48 	fmuld  %f10, %f8, %f10
    c298:	c2 07 a0 48 	ld  [ %fp + 0x48 ], %g1
    c29c:	d9 18 60 30 	ldd  [ %g1 + 0x30 ], %f12
    c2a0:	c2 07 a0 48 	ld  [ %fp + 0x48 ], %g1
    c2a4:	d1 18 60 10 	ldd  [ %g1 + 0x10 ], %f8
    c2a8:	91 a3 09 48 	fmuld  %f12, %f8, %f8
    c2ac:	91 a2 88 c8 	fsubd  %f10, %f8, %f8
    c2b0:	c2 07 a0 44 	ld  [ %fp + 0x44 ], %g1
    c2b4:	d1 38 60 20 	std  %f8, [ %g1 + 0x20 ]
    c2b8:	c2 07 a0 48 	ld  [ %fp + 0x48 ], %g1
    c2bc:	d5 18 60 30 	ldd  [ %g1 + 0x30 ], %f10
    c2c0:	c2 07 a0 48 	ld  [ %fp + 0x48 ], %g1
    c2c4:	d1 18 60 08 	ldd  [ %g1 + 8 ], %f8
    c2c8:	95 a2 89 48 	fmuld  %f10, %f8, %f10
    c2cc:	c2 07 a0 48 	ld  [ %fp + 0x48 ], %g1
    c2d0:	d9 18 40 00 	ldd  [ %g1 ], %f12
    c2d4:	c2 07 a0 48 	ld  [ %fp + 0x48 ], %g1
    c2d8:	d1 18 60 38 	ldd  [ %g1 + 0x38 ], %f8
    c2dc:	91 a3 09 48 	fmuld  %f12, %f8, %f8
    c2e0:	91 a2 88 c8 	fsubd  %f10, %f8, %f8
    c2e4:	c2 07 a0 44 	ld  [ %fp + 0x44 ], %g1
    c2e8:	d1 38 60 38 	std  %f8, [ %g1 + 0x38 ]
    c2ec:	c2 07 a0 48 	ld  [ %fp + 0x48 ], %g1
    c2f0:	d5 18 60 08 	ldd  [ %g1 + 8 ], %f10
    c2f4:	c2 07 a0 48 	ld  [ %fp + 0x48 ], %g1
    c2f8:	d1 18 60 28 	ldd  [ %g1 + 0x28 ], %f8
    c2fc:	95 a2 89 48 	fmuld  %f10, %f8, %f10
    c300:	c2 07 a0 48 	ld  [ %fp + 0x48 ], %g1
    c304:	d9 18 60 20 	ldd  [ %g1 + 0x20 ], %f12
    c308:	c2 07 a0 48 	ld  [ %fp + 0x48 ], %g1
    c30c:	d1 18 60 10 	ldd  [ %g1 + 0x10 ], %f8
    c310:	91 a3 09 48 	fmuld  %f12, %f8, %f8
    c314:	91 a2 88 c8 	fsubd  %f10, %f8, %f8
    c318:	c2 07 a0 44 	ld  [ %fp + 0x44 ], %g1
    c31c:	d1 38 60 10 	std  %f8, [ %g1 + 0x10 ]
    c320:	c2 07 a0 48 	ld  [ %fp + 0x48 ], %g1
    c324:	d5 18 60 18 	ldd  [ %g1 + 0x18 ], %f10
    c328:	c2 07 a0 48 	ld  [ %fp + 0x48 ], %g1
    c32c:	d1 18 60 10 	ldd  [ %g1 + 0x10 ], %f8
    c330:	95 a2 89 48 	fmuld  %f10, %f8, %f10
    c334:	c2 07 a0 48 	ld  [ %fp + 0x48 ], %g1
    c338:	d9 18 40 00 	ldd  [ %g1 ], %f12
    c33c:	c2 07 a0 48 	ld  [ %fp + 0x48 ], %g1
    c340:	d1 18 60 28 	ldd  [ %g1 + 0x28 ], %f8
    c344:	91 a3 09 48 	fmuld  %f12, %f8, %f8
    c348:	91 a2 88 c8 	fsubd  %f10, %f8, %f8
    c34c:	c2 07 a0 44 	ld  [ %fp + 0x44 ], %g1
    c350:	d1 38 60 28 	std  %f8, [ %g1 + 0x28 ]
    c354:	c2 07 a0 48 	ld  [ %fp + 0x48 ], %g1
    c358:	d5 18 40 00 	ldd  [ %g1 ], %f10
    c35c:	c2 07 a0 48 	ld  [ %fp + 0x48 ], %g1
    c360:	d1 18 60 20 	ldd  [ %g1 + 0x20 ], %f8
    c364:	95 a2 89 48 	fmuld  %f10, %f8, %f10
    c368:	c2 07 a0 48 	ld  [ %fp + 0x48 ], %g1
    c36c:	d9 18 60 18 	ldd  [ %g1 + 0x18 ], %f12
    c370:	c2 07 a0 48 	ld  [ %fp + 0x48 ], %g1
    c374:	d1 18 60 08 	ldd  [ %g1 + 8 ], %f8
    c378:	91 a3 09 48 	fmuld  %f12, %f8, %f8
    c37c:	91 a2 88 c8 	fsubd  %f10, %f8, %f8
    c380:	c2 07 a0 44 	ld  [ %fp + 0x44 ], %g1
    c384:	d1 38 60 40 	std  %f8, [ %g1 + 0x40 ]
    c388:	81 e8 00 00 	restore 
    c38c:	81 c3 e0 08 	retl 
    c390:	01 00 00 00 	nop 

0000c394 <outer_product>:
    c394:	9d e3 bf a0 	save  %sp, -96, %sp
    c398:	f0 27 a0 44 	st  %i0, [ %fp + 0x44 ]
    c39c:	f2 27 a0 48 	st  %i1, [ %fp + 0x48 ]
    c3a0:	f4 27 a0 4c 	st  %i2, [ %fp + 0x4c ]
    c3a4:	c2 07 a0 48 	ld  [ %fp + 0x48 ], %g1
    c3a8:	d5 18 40 00 	ldd  [ %g1 ], %f10
    c3ac:	c2 07 a0 4c 	ld  [ %fp + 0x4c ], %g1
    c3b0:	d1 18 40 00 	ldd  [ %g1 ], %f8
    c3b4:	91 a2 89 48 	fmuld  %f10, %f8, %f8
    c3b8:	c2 07 a0 44 	ld  [ %fp + 0x44 ], %g1
    c3bc:	d1 38 40 00 	std  %f8, [ %g1 ]
    c3c0:	c2 07 a0 48 	ld  [ %fp + 0x48 ], %g1
    c3c4:	d5 18 40 00 	ldd  [ %g1 ], %f10
    c3c8:	c2 07 a0 4c 	ld  [ %fp + 0x4c ], %g1
    c3cc:	d1 18 60 08 	ldd  [ %g1 + 8 ], %f8
    c3d0:	91 a2 89 48 	fmuld  %f10, %f8, %f8
    c3d4:	c2 07 a0 44 	ld  [ %fp + 0x44 ], %g1
    c3d8:	d1 38 60 08 	std  %f8, [ %g1 + 8 ]
    c3dc:	c2 07 a0 48 	ld  [ %fp + 0x48 ], %g1
    c3e0:	d5 18 40 00 	ldd  [ %g1 ], %f10
    c3e4:	c2 07 a0 4c 	ld  [ %fp + 0x4c ], %g1
    c3e8:	d1 18 60 10 	ldd  [ %g1 + 0x10 ], %f8
    c3ec:	91 a2 89 48 	fmuld  %f10, %f8, %f8
    c3f0:	c2 07 a0 44 	ld  [ %fp + 0x44 ], %g1
    c3f4:	d1 38 60 10 	std  %f8, [ %g1 + 0x10 ]
    c3f8:	c2 07 a0 48 	ld  [ %fp + 0x48 ], %g1
    c3fc:	d5 18 60 08 	ldd  [ %g1 + 8 ], %f10
    c400:	c2 07 a0 4c 	ld  [ %fp + 0x4c ], %g1
    c404:	d1 18 40 00 	ldd  [ %g1 ], %f8
    c408:	91 a2 89 48 	fmuld  %f10, %f8, %f8
    c40c:	c2 07 a0 44 	ld  [ %fp + 0x44 ], %g1
    c410:	d1 38 60 18 	std  %f8, [ %g1 + 0x18 ]
    c414:	c2 07 a0 48 	ld  [ %fp + 0x48 ], %g1
    c418:	d5 18 60 08 	ldd  [ %g1 + 8 ], %f10
    c41c:	c2 07 a0 4c 	ld  [ %fp + 0x4c ], %g1
    c420:	d1 18 60 08 	ldd  [ %g1 + 8 ], %f8
    c424:	91 a2 89 48 	fmuld  %f10, %f8, %f8
    c428:	c2 07 a0 44 	ld  [ %fp + 0x44 ], %g1
    c42c:	d1 38 60 20 	std  %f8, [ %g1 + 0x20 ]
    c430:	c2 07 a0 48 	ld  [ %fp + 0x48 ], %g1
    c434:	d5 18 60 08 	ldd  [ %g1 + 8 ], %f10
    c438:	c2 07 a0 4c 	ld  [ %fp + 0x4c ], %g1
    c43c:	d1 18 60 10 	ldd  [ %g1 + 0x10 ], %f8
    c440:	91 a2 89 48 	fmuld  %f10, %f8, %f8
    c444:	c2 07 a0 44 	ld  [ %fp + 0x44 ], %g1
    c448:	d1 38 60 28 	std  %f8, [ %g1 + 0x28 ]
    c44c:	c2 07 a0 48 	ld  [ %fp + 0x48 ], %g1
    c450:	d5 18 60 10 	ldd  [ %g1 + 0x10 ], %f10
    c454:	c2 07 a0 4c 	ld  [ %fp + 0x4c ], %g1
    c458:	d1 18 40 00 	ldd  [ %g1 ], %f8
    c45c:	91 a2 89 48 	fmuld  %f10, %f8, %f8
    c460:	c2 07 a0 44 	ld  [ %fp + 0x44 ], %g1
    c464:	d1 38 60 30 	std  %f8, [ %g1 + 0x30 ]
    c468:	c2 07 a0 48 	ld  [ %fp + 0x48 ], %g1
    c46c:	d5 18 60 10 	ldd  [ %g1 + 0x10 ], %f10
    c470:	c2 07 a0 4c 	ld  [ %fp + 0x4c ], %g1
    c474:	d1 18 60 08 	ldd  [ %g1 + 8 ], %f8
    c478:	91 a2 89 48 	fmuld  %f10, %f8, %f8
    c47c:	c2 07 a0 44 	ld  [ %fp + 0x44 ], %g1
    c480:	d1 38 60 38 	std  %f8, [ %g1 + 0x38 ]
    c484:	c2 07 a0 48 	ld  [ %fp + 0x48 ], %g1
    c488:	d5 18 60 10 	ldd  [ %g1 + 0x10 ], %f10
    c48c:	c2 07 a0 4c 	ld  [ %fp + 0x4c ], %g1
    c490:	d1 18 60 10 	ldd  [ %g1 + 0x10 ], %f8
    c494:	91 a2 89 48 	fmuld  %f10, %f8, %f8
    c498:	c2 07 a0 44 	ld  [ %fp + 0x44 ], %g1
    c49c:	d1 38 60 40 	std  %f8, [ %g1 + 0x40 ]
    c4a0:	81 e8 00 00 	restore 
    c4a4:	81 c3 e0 08 	retl 
    c4a8:	01 00 00 00 	nop 

0000c4ac <matmul>:
    c4ac:	9d e3 bf a0 	save  %sp, -96, %sp
    c4b0:	f0 27 a0 44 	st  %i0, [ %fp + 0x44 ]
    c4b4:	f2 27 a0 48 	st  %i1, [ %fp + 0x48 ]
    c4b8:	f4 27 a0 4c 	st  %i2, [ %fp + 0x4c ]
    c4bc:	c2 07 a0 48 	ld  [ %fp + 0x48 ], %g1
    c4c0:	d5 18 40 00 	ldd  [ %g1 ], %f10
    c4c4:	c2 07 a0 4c 	ld  [ %fp + 0x4c ], %g1
    c4c8:	d1 18 40 00 	ldd  [ %g1 ], %f8
    c4cc:	95 a2 89 48 	fmuld  %f10, %f8, %f10
    c4d0:	c2 07 a0 48 	ld  [ %fp + 0x48 ], %g1
    c4d4:	d9 18 60 08 	ldd  [ %g1 + 8 ], %f12
    c4d8:	c2 07 a0 4c 	ld  [ %fp + 0x4c ], %g1
    c4dc:	d1 18 60 08 	ldd  [ %g1 + 8 ], %f8
    c4e0:	91 a3 09 48 	fmuld  %f12, %f8, %f8
    c4e4:	95 a2 88 48 	faddd  %f10, %f8, %f10
    c4e8:	c2 07 a0 48 	ld  [ %fp + 0x48 ], %g1
    c4ec:	d9 18 60 10 	ldd  [ %g1 + 0x10 ], %f12
    c4f0:	c2 07 a0 4c 	ld  [ %fp + 0x4c ], %g1
    c4f4:	d1 18 60 10 	ldd  [ %g1 + 0x10 ], %f8
    c4f8:	91 a3 09 48 	fmuld  %f12, %f8, %f8
    c4fc:	91 a2 88 48 	faddd  %f10, %f8, %f8
    c500:	c2 07 a0 44 	ld  [ %fp + 0x44 ], %g1
    c504:	d1 38 40 00 	std  %f8, [ %g1 ]
    c508:	c2 07 a0 48 	ld  [ %fp + 0x48 ], %g1
    c50c:	d5 18 60 18 	ldd  [ %g1 + 0x18 ], %f10
    c510:	c2 07 a0 4c 	ld  [ %fp + 0x4c ], %g1
    c514:	d1 18 40 00 	ldd  [ %g1 ], %f8
    c518:	95 a2 89 48 	fmuld  %f10, %f8, %f10
    c51c:	c2 07 a0 48 	ld  [ %fp + 0x48 ], %g1
    c520:	d9 18 60 20 	ldd  [ %g1 + 0x20 ], %f12
    c524:	c2 07 a0 4c 	ld  [ %fp + 0x4c ], %g1
    c528:	d1 18 60 08 	ldd  [ %g1 + 8 ], %f8
    c52c:	91 a3 09 48 	fmuld  %f12, %f8, %f8
    c530:	95 a2 88 48 	faddd  %f10, %f8, %f10
    c534:	c2 07 a0 48 	ld  [ %fp + 0x48 ], %g1
    c538:	d9 18 60 28 	ldd  [ %g1 + 0x28 ], %f12
    c53c:	c2 07 a0 4c 	ld  [ %fp + 0x4c ], %g1
    c540:	d1 18 60 10 	ldd  [ %g1 + 0x10 ], %f8
    c544:	91 a3 09 48 	fmuld  %f12, %f8, %f8
    c548:	91 a2 88 48 	faddd  %f10, %f8, %f8
    c54c:	c2 07 a0 44 	ld  [ %fp + 0x44 ], %g1
    c550:	d1 38 60 08 	std  %f8, [ %g1 + 8 ]
    c554:	c2 07 a0 48 	ld  [ %fp + 0x48 ], %g1
    c558:	d5 18 60 30 	ldd  [ %g1 + 0x30 ], %f10
    c55c:	c2 07 a0 4c 	ld  [ %fp + 0x4c ], %g1
    c560:	d1 18 40 00 	ldd  [ %g1 ], %f8
    c564:	95 a2 89 48 	fmuld  %f10, %f8, %f10
    c568:	c2 07 a0 48 	ld  [ %fp + 0x48 ], %g1
    c56c:	d9 18 60 38 	ldd  [ %g1 + 0x38 ], %f12
    c570:	c2 07 a0 4c 	ld  [ %fp + 0x4c ], %g1
    c574:	d1 18 60 08 	ldd  [ %g1 + 8 ], %f8
    c578:	91 a3 09 48 	fmuld  %f12, %f8, %f8
    c57c:	95 a2 88 48 	faddd  %f10, %f8, %f10
    c580:	c2 07 a0 48 	ld  [ %fp + 0x48 ], %g1
    c584:	d9 18 60 40 	ldd  [ %g1 + 0x40 ], %f12
    c588:	c2 07 a0 4c 	ld  [ %fp + 0x4c ], %g1
    c58c:	d1 18 60 10 	ldd  [ %g1 + 0x10 ], %f8
    c590:	91 a3 09 48 	fmuld  %f12, %f8, %f8
    c594:	91 a2 88 48 	faddd  %f10, %f8, %f8
    c598:	c2 07 a0 44 	ld  [ %fp + 0x44 ], %g1
    c59c:	d1 38 60 10 	std  %f8, [ %g1 + 0x10 ]
    c5a0:	81 e8 00 00 	restore 
    c5a4:	81 c3 e0 08 	retl 
    c5a8:	01 00 00 00 	nop 

0000c5ac <f.1204>:
    c5ac:	9d e3 bf 88 	save  %sp, -120, %sp
    c5b0:	f0 3f bf e8 	std  %i0, [ %fp + -24 ]
    c5b4:	82 10 00 02 	mov  %g2, %g1
    c5b8:	d5 1f bf e8 	ldd  [ %fp + -24 ], %f10
    c5bc:	d1 1f bf e8 	ldd  [ %fp + -24 ], %f8
    c5c0:	95 a2 89 48 	fmuld  %f10, %f8, %f10
    c5c4:	d9 18 60 28 	ldd  [ %g1 + 0x28 ], %f12
    c5c8:	d1 18 60 28 	ldd  [ %g1 + 0x28 ], %f8
    c5cc:	91 a3 09 48 	fmuld  %f12, %f8, %f8
    c5d0:	95 a2 88 c8 	fsubd  %f10, %f8, %f10
    c5d4:	d1 18 60 20 	ldd  [ %g1 + 0x20 ], %f8
    c5d8:	95 a2 88 48 	faddd  %f10, %f8, %f10
    c5dc:	d9 1f bf e8 	ldd  [ %fp + -24 ], %f12
    c5e0:	d1 1f bf e8 	ldd  [ %fp + -24 ], %f8
    c5e4:	99 a3 09 48 	fmuld  %f12, %f8, %f12
    c5e8:	dd 18 60 28 	ldd  [ %g1 + 0x28 ], %f14
    c5ec:	d1 18 60 28 	ldd  [ %g1 + 0x28 ], %f8
    c5f0:	91 a3 89 48 	fmuld  %f14, %f8, %f8
    c5f4:	99 a3 08 c8 	fsubd  %f12, %f8, %f12
    c5f8:	d1 18 60 18 	ldd  [ %g1 + 0x18 ], %f8
    c5fc:	91 a3 08 c8 	fsubd  %f12, %f8, %f8
    c600:	91 a2 89 48 	fmuld  %f10, %f8, %f8
    c604:	d1 3f bf f8 	std  %f8, [ %fp + -8 ]
    c608:	d1 18 60 28 	ldd  [ %g1 + 0x28 ], %f8
    c60c:	d5 1f bf e8 	ldd  [ %fp + -24 ], %f10
    c610:	95 a2 88 c8 	fsubd  %f10, %f8, %f10
    c614:	d9 18 60 10 	ldd  [ %g1 + 0x10 ], %f12
    c618:	d1 18 60 08 	ldd  [ %g1 + 8 ], %f8
    c61c:	91 a3 08 48 	faddd  %f12, %f8, %f8
    c620:	91 a2 89 48 	fmuld  %f10, %f8, %f8
    c624:	d1 3f bf f0 	std  %f8, [ %fp + -16 ]
    c628:	d5 1f bf f8 	ldd  [ %fp + -8 ], %f10
    c62c:	d1 1f bf f0 	ldd  [ %fp + -16 ], %f8
    c630:	95 a2 88 c8 	fsubd  %f10, %f8, %f10
    c634:	d1 18 40 00 	ldd  [ %g1 ], %f8
    c638:	91 a2 88 c8 	fsubd  %f10, %f8, %f8
    c63c:	81 a0 00 28 	fmovs  %f8, %f0
    c640:	83 a0 00 29 	fmovs  %f9, %f1
    c644:	81 e8 00 00 	restore 
    c648:	81 c3 e0 08 	retl 
    c64c:	01 00 00 00 	nop 

0000c650 <quest>:
    c650:	9d e3 bc 68 	save  %sp, -920, %sp
    c654:	f0 27 a0 44 	st  %i0, [ %fp + 0x44 ]
    c658:	82 10 00 0e 	mov  %sp, %g1
    c65c:	a8 10 00 01 	mov  %g1, %l4
    c660:	82 10 20 05 	mov  5, %g1
    c664:	c2 2f bf e7 	stb  %g1, [ %fp + -25 ]
    c668:	c8 0f bf e7 	ldub  [ %fp + -25 ], %g4
    c66c:	82 09 20 ff 	and  %g4, 0xff, %g1
    c670:	82 00 7f ff 	add  %g1, -1, %g1
    c674:	c2 27 bf e0 	st  %g1, [ %fp + -32 ]
    c678:	82 09 20 ff 	and  %g4, 0xff, %g1
    c67c:	b0 10 20 00 	clr  %i0
    c680:	b2 10 00 01 	mov  %g1, %i1
    c684:	84 10 00 18 	mov  %i0, %g2
    c688:	86 10 00 19 	mov  %i1, %g3
    c68c:	a6 80 c0 03 	addcc  %g3, %g3, %l3
    c690:	a4 40 80 02 	addx  %g2, %g2, %l2
    c694:	84 10 00 12 	mov  %l2, %g2
    c698:	86 10 00 13 	mov  %l3, %g3
    c69c:	9a 80 c0 19 	addcc  %g3, %i1, %o5
    c6a0:	98 40 80 18 	addx  %g2, %i0, %o4
    c6a4:	84 10 00 0c 	mov  %o4, %g2
    c6a8:	86 10 00 0d 	mov  %o5, %g3
    c6ac:	83 30 e0 1a 	srl  %g3, 0x1a, %g1
    c6b0:	95 28 a0 06 	sll  %g2, 6, %o2
    c6b4:	94 10 40 0a 	or  %g1, %o2, %o2
    c6b8:	97 28 e0 06 	sll  %g3, 6, %o3
    c6bc:	84 10 00 0a 	mov  %o2, %g2
    c6c0:	86 10 00 0b 	mov  %o3, %g3
    c6c4:	84 09 20 ff 	and  %g4, 0xff, %g2
    c6c8:	82 10 00 02 	mov  %g2, %g1
    c6cc:	82 00 40 01 	add  %g1, %g1, %g1
    c6d0:	82 00 40 02 	add  %g1, %g2, %g1
    c6d4:	83 28 60 03 	sll  %g1, 3, %g1
    c6d8:	82 09 20 ff 	and  %g4, 0xff, %g1
    c6dc:	b0 10 20 00 	clr  %i0
    c6e0:	b2 10 00 01 	mov  %g1, %i1
    c6e4:	84 10 00 18 	mov  %i0, %g2
    c6e8:	86 10 00 19 	mov  %i1, %g3
    c6ec:	96 80 c0 03 	addcc  %g3, %g3, %o3
    c6f0:	94 40 80 02 	addx  %g2, %g2, %o2
    c6f4:	84 10 00 0a 	mov  %o2, %g2
    c6f8:	86 10 00 0b 	mov  %o3, %g3
    c6fc:	9a 80 c0 19 	addcc  %g3, %i1, %o5
    c700:	98 40 80 18 	addx  %g2, %i0, %o4
    c704:	84 10 00 0c 	mov  %o4, %g2
    c708:	86 10 00 0d 	mov  %o5, %g3
    c70c:	83 30 e0 1a 	srl  %g3, 0x1a, %g1
    c710:	99 28 a0 06 	sll  %g2, 6, %o4
    c714:	98 10 40 0c 	or  %g1, %o4, %o4
    c718:	9b 28 e0 06 	sll  %g3, 6, %o5
    c71c:	84 10 00 0c 	mov  %o4, %g2
    c720:	86 10 00 0d 	mov  %o5, %g3
    c724:	84 09 20 ff 	and  %g4, 0xff, %g2
    c728:	82 10 00 02 	mov  %g2, %g1
    c72c:	82 00 40 01 	add  %g1, %g1, %g1
    c730:	82 00 40 02 	add  %g1, %g2, %g1
    c734:	83 28 60 03 	sll  %g1, 3, %g1
    c738:	82 00 60 07 	add  %g1, 7, %g1
    c73c:	82 00 60 07 	add  %g1, 7, %g1
    c740:	83 30 60 03 	srl  %g1, 3, %g1
    c744:	83 28 60 03 	sll  %g1, 3, %g1
    c748:	9c 23 80 01 	sub  %sp, %g1, %sp
    c74c:	82 03 a0 64 	add  %sp, 0x64, %g1
    c750:	82 00 60 07 	add  %g1, 7, %g1
    c754:	83 30 60 03 	srl  %g1, 3, %g1
    c758:	83 28 60 03 	sll  %g1, 3, %g1
    c75c:	c2 27 bf dc 	st  %g1, [ %fp + -36 ]
    c760:	c8 0f bf e7 	ldub  [ %fp + -25 ], %g4
    c764:	82 09 20 ff 	and  %g4, 0xff, %g1
    c768:	82 00 7f ff 	add  %g1, -1, %g1
    c76c:	c2 27 bf d8 	st  %g1, [ %fp + -40 ]
    c770:	82 09 20 ff 	and  %g4, 0xff, %g1
    c774:	b0 10 20 00 	clr  %i0
    c778:	b2 10 00 01 	mov  %g1, %i1
    c77c:	84 10 00 18 	mov  %i0, %g2
    c780:	86 10 00 19 	mov  %i1, %g3
    c784:	9a 80 c0 03 	addcc  %g3, %g3, %o5
    c788:	98 40 80 02 	addx  %g2, %g2, %o4
    c78c:	84 10 00 0c 	mov  %o4, %g2
    c790:	86 10 00 0d 	mov  %o5, %g3
    c794:	9a 80 c0 19 	addcc  %g3, %i1, %o5
    c798:	98 40 80 18 	addx  %g2, %i0, %o4
    c79c:	84 10 00 0c 	mov  %o4, %g2
    c7a0:	86 10 00 0d 	mov  %o5, %g3
    c7a4:	83 30 e0 1a 	srl  %g3, 0x1a, %g1
    c7a8:	b5 28 a0 06 	sll  %g2, 6, %i2
    c7ac:	b4 10 40 1a 	or  %g1, %i2, %i2
    c7b0:	b7 28 e0 06 	sll  %g3, 6, %i3
    c7b4:	84 10 00 1a 	mov  %i2, %g2
    c7b8:	86 10 00 1b 	mov  %i3, %g3
    c7bc:	84 09 20 ff 	and  %g4, 0xff, %g2
    c7c0:	82 10 00 02 	mov  %g2, %g1
    c7c4:	82 00 40 01 	add  %g1, %g1, %g1
    c7c8:	82 00 40 02 	add  %g1, %g2, %g1
    c7cc:	83 28 60 03 	sll  %g1, 3, %g1
    c7d0:	82 09 20 ff 	and  %g4, 0xff, %g1
    c7d4:	b4 10 20 00 	clr  %i2
    c7d8:	b6 10 00 01 	mov  %g1, %i3
    c7dc:	84 10 00 1a 	mov  %i2, %g2
    c7e0:	86 10 00 1b 	mov  %i3, %g3
    c7e4:	b2 80 c0 03 	addcc  %g3, %g3, %i1
    c7e8:	b0 40 80 02 	addx  %g2, %g2, %i0
    c7ec:	84 10 00 18 	mov  %i0, %g2
    c7f0:	86 10 00 19 	mov  %i1, %g3
    c7f4:	9a 80 c0 1b 	addcc  %g3, %i3, %o5
    c7f8:	98 40 80 1a 	addx  %g2, %i2, %o4
    c7fc:	84 10 00 0c 	mov  %o4, %g2
    c800:	86 10 00 0d 	mov  %o5, %g3
    c804:	83 30 e0 1a 	srl  %g3, 0x1a, %g1
    c808:	b9 28 a0 06 	sll  %g2, 6, %i4
    c80c:	b8 10 40 1c 	or  %g1, %i4, %i4
    c810:	bb 28 e0 06 	sll  %g3, 6, %i5
    c814:	84 10 00 1c 	mov  %i4, %g2
    c818:	86 10 00 1d 	mov  %i5, %g3
    c81c:	84 09 20 ff 	and  %g4, 0xff, %g2
    c820:	82 10 00 02 	mov  %g2, %g1
    c824:	82 00 40 01 	add  %g1, %g1, %g1
    c828:	82 00 40 02 	add  %g1, %g2, %g1
    c82c:	83 28 60 03 	sll  %g1, 3, %g1
    c830:	82 00 60 07 	add  %g1, 7, %g1
    c834:	82 00 60 07 	add  %g1, 7, %g1
    c838:	83 30 60 03 	srl  %g1, 3, %g1
    c83c:	83 28 60 03 	sll  %g1, 3, %g1
    c840:	9c 23 80 01 	sub  %sp, %g1, %sp
    c844:	82 03 a0 64 	add  %sp, 0x64, %g1
    c848:	82 00 60 07 	add  %g1, 7, %g1
    c84c:	83 30 60 03 	srl  %g1, 3, %g1
    c850:	83 28 60 03 	sll  %g1, 3, %g1
    c854:	c2 27 bf d4 	st  %g1, [ %fp + -44 ]
    c858:	03 00 00 42 	sethi  %hi(0x10800), %g1
    c85c:	82 10 61 18 	or  %g1, 0x118, %g1	! 10918 <PAGE_TABLE_BASE+0x518>
    c860:	d1 18 40 00 	ldd  [ %g1 ], %f8
    c864:	d1 3f bf c8 	std  %f8, [ %fp + -56 ]
    c868:	c2 0f bf e7 	ldub  [ %fp + -25 ], %g1
    c86c:	84 08 60 ff 	and  %g1, 0xff, %g2
    c870:	84 00 bf ff 	add  %g2, -1, %g2
    c874:	c4 27 bf c4 	st  %g2, [ %fp + -60 ]
    c878:	84 08 60 ff 	and  %g1, 0xff, %g2
    c87c:	86 10 00 02 	mov  %g2, %g3
    c880:	84 10 20 00 	clr  %g2
    c884:	89 30 e0 1a 	srl  %g3, 0x1a, %g4
    c888:	a1 28 a0 06 	sll  %g2, 6, %l0
    c88c:	a0 11 00 10 	or  %g4, %l0, %l0
    c890:	a3 28 e0 06 	sll  %g3, 6, %l1
    c894:	84 08 60 ff 	and  %g1, 0xff, %g2
    c898:	86 10 00 02 	mov  %g2, %g3
    c89c:	84 10 20 00 	clr  %g2
    c8a0:	89 30 e0 1a 	srl  %g3, 0x1a, %g4
    c8a4:	91 28 a0 06 	sll  %g2, 6, %o0
    c8a8:	90 11 00 08 	or  %g4, %o0, %o0
    c8ac:	93 28 e0 06 	sll  %g3, 6, %o1
    c8b0:	82 08 60 ff 	and  %g1, 0xff, %g1
    c8b4:	83 28 60 03 	sll  %g1, 3, %g1
    c8b8:	82 00 60 07 	add  %g1, 7, %g1
    c8bc:	82 00 60 07 	add  %g1, 7, %g1
    c8c0:	83 30 60 03 	srl  %g1, 3, %g1
    c8c4:	83 28 60 03 	sll  %g1, 3, %g1
    c8c8:	9c 23 80 01 	sub  %sp, %g1, %sp
    c8cc:	82 03 a0 64 	add  %sp, 0x64, %g1
    c8d0:	82 00 60 07 	add  %g1, 7, %g1
    c8d4:	83 30 60 03 	srl  %g1, 3, %g1
    c8d8:	83 28 60 03 	sll  %g1, 3, %g1
    c8dc:	c2 27 bf c0 	st  %g1, [ %fp + -64 ]
    c8e0:	c2 0f bf e7 	ldub  [ %fp + -25 ], %g1
    c8e4:	82 08 60 ff 	and  %g1, 0xff, %g1
    c8e8:	c2 27 bc dc 	st  %g1, [ %fp + -804 ]
    c8ec:	d5 07 bc dc 	ld  [ %fp + -804 ], %f10
    c8f0:	91 a0 19 0a 	fitod  %f10, %f8
    c8f4:	03 00 00 42 	sethi  %hi(0x10800), %g1
    c8f8:	82 10 61 20 	or  %g1, 0x120, %g1	! 10920 <PAGE_TABLE_BASE+0x520>
    c8fc:	d5 18 40 00 	ldd  [ %g1 ], %f10
    c900:	91 a2 89 c8 	fdivd  %f10, %f8, %f8
    c904:	c2 07 bf c0 	ld  [ %fp + -64 ], %g1
    c908:	d1 38 40 00 	std  %f8, [ %g1 ]
    c90c:	c2 0f bf e7 	ldub  [ %fp + -25 ], %g1
    c910:	82 08 60 ff 	and  %g1, 0xff, %g1
    c914:	c2 27 bc dc 	st  %g1, [ %fp + -804 ]
    c918:	d9 07 bc dc 	ld  [ %fp + -804 ], %f12
    c91c:	91 a0 19 0c 	fitod  %f12, %f8
    c920:	03 00 00 42 	sethi  %hi(0x10800), %g1
    c924:	82 10 61 20 	or  %g1, 0x120, %g1	! 10920 <PAGE_TABLE_BASE+0x520>
    c928:	d5 18 40 00 	ldd  [ %g1 ], %f10
    c92c:	91 a2 89 c8 	fdivd  %f10, %f8, %f8
    c930:	c2 07 bf c0 	ld  [ %fp + -64 ], %g1
    c934:	d1 38 60 08 	std  %f8, [ %g1 + 8 ]
    c938:	c2 0f bf e7 	ldub  [ %fp + -25 ], %g1
    c93c:	82 08 60 ff 	and  %g1, 0xff, %g1
    c940:	c2 27 bc dc 	st  %g1, [ %fp + -804 ]
    c944:	db 07 bc dc 	ld  [ %fp + -804 ], %f13
    c948:	91 a0 19 0d 	fitod  %f13, %f8
    c94c:	03 00 00 42 	sethi  %hi(0x10800), %g1
    c950:	82 10 61 20 	or  %g1, 0x120, %g1	! 10920 <PAGE_TABLE_BASE+0x520>
    c954:	d5 18 40 00 	ldd  [ %g1 ], %f10
    c958:	91 a2 89 c8 	fdivd  %f10, %f8, %f8
    c95c:	c2 07 bf c0 	ld  [ %fp + -64 ], %g1
    c960:	d1 38 60 10 	std  %f8, [ %g1 + 0x10 ]
    c964:	c2 0f bf e7 	ldub  [ %fp + -25 ], %g1
    c968:	82 08 60 ff 	and  %g1, 0xff, %g1
    c96c:	c2 27 bc dc 	st  %g1, [ %fp + -804 ]
    c970:	d5 07 bc dc 	ld  [ %fp + -804 ], %f10
    c974:	91 a0 19 0a 	fitod  %f10, %f8
    c978:	03 00 00 42 	sethi  %hi(0x10800), %g1
    c97c:	82 10 61 20 	or  %g1, 0x120, %g1	! 10920 <PAGE_TABLE_BASE+0x520>
    c980:	d5 18 40 00 	ldd  [ %g1 ], %f10
    c984:	91 a2 89 c8 	fdivd  %f10, %f8, %f8
    c988:	c2 07 bf c0 	ld  [ %fp + -64 ], %g1
    c98c:	d1 38 60 18 	std  %f8, [ %g1 + 0x18 ]
    c990:	c2 0f bf e7 	ldub  [ %fp + -25 ], %g1
    c994:	82 08 60 ff 	and  %g1, 0xff, %g1
    c998:	c2 27 bc dc 	st  %g1, [ %fp + -804 ]
    c99c:	d9 07 bc dc 	ld  [ %fp + -804 ], %f12
    c9a0:	91 a0 19 0c 	fitod  %f12, %f8
    c9a4:	03 00 00 42 	sethi  %hi(0x10800), %g1
    c9a8:	82 10 61 20 	or  %g1, 0x120, %g1	! 10920 <PAGE_TABLE_BASE+0x520>
    c9ac:	d5 18 40 00 	ldd  [ %g1 ], %f10
    c9b0:	91 a2 89 c8 	fdivd  %f10, %f8, %f8
    c9b4:	c2 07 bf c0 	ld  [ %fp + -64 ], %g1
    c9b8:	d1 38 60 20 	std  %f8, [ %g1 + 0x20 ]
    c9bc:	03 00 00 42 	sethi  %hi(0x10800), %g1
    c9c0:	82 10 61 20 	or  %g1, 0x120, %g1	! 10920 <PAGE_TABLE_BASE+0x520>
    c9c4:	d1 18 40 00 	ldd  [ %g1 ], %f8
    c9c8:	d1 3f bf b8 	std  %f8, [ %fp + -72 ]
    c9cc:	82 07 bf 40 	add  %fp, -192, %g1
    c9d0:	90 10 00 01 	mov  %g1, %o0
    c9d4:	92 10 20 00 	clr  %o1
    c9d8:	7f ff fc 86 	call  bbf0 <matrix_construct>
    c9dc:	01 00 00 00 	nop 
    c9e0:	82 07 be f8 	add  %fp, -264, %g1
    c9e4:	90 10 00 01 	mov  %g1, %o0
    c9e8:	92 10 20 00 	clr  %o1
    c9ec:	7f ff fc 81 	call  bbf0 <matrix_construct>
    c9f0:	01 00 00 00 	nop 
    c9f4:	82 07 be e0 	add  %fp, -288, %g1
    c9f8:	05 00 00 42 	sethi  %hi(0x10800), %g2
    c9fc:	84 10 a1 28 	or  %g2, 0x128, %g2	! 10928 <PAGE_TABLE_BASE+0x528>
    ca00:	d5 18 80 00 	ldd  [ %g2 ], %f10
    ca04:	05 00 00 42 	sethi  %hi(0x10800), %g2
    ca08:	84 10 a1 28 	or  %g2, 0x128, %g2	! 10928 <PAGE_TABLE_BASE+0x528>
    ca0c:	d1 18 80 00 	ldd  [ %g2 ], %f8
    ca10:	05 00 00 42 	sethi  %hi(0x10800), %g2
    ca14:	84 10 a1 28 	or  %g2, 0x128, %g2	! 10928 <PAGE_TABLE_BASE+0x528>
    ca18:	c4 18 80 00 	ldd  [ %g2 ], %g2
    ca1c:	c4 3f bc e0 	std  %g2, [ %fp + -800 ]
    ca20:	c8 07 bc e4 	ld  [ %fp + -796 ], %g4
    ca24:	c8 23 a0 5c 	st  %g4, [ %sp + 0x5c ]
    ca28:	9a 10 00 02 	mov  %g2, %o5
    ca2c:	90 10 00 01 	mov  %g1, %o0
    ca30:	d5 3f bc d0 	std  %f10, [ %fp + -816 ]
    ca34:	c4 1f bc d0 	ldd  [ %fp + -816 ], %g2
    ca38:	92 10 00 02 	mov  %g2, %o1
    ca3c:	94 10 00 03 	mov  %g3, %o2
    ca40:	d1 3f bc d0 	std  %f8, [ %fp + -816 ]
    ca44:	c4 1f bc d0 	ldd  [ %fp + -816 ], %g2
    ca48:	96 10 00 02 	mov  %g2, %o3
    ca4c:	98 10 00 03 	mov  %g3, %o4
    ca50:	7f ff fb d5 	call  b9a4 <Vec_construct>
    ca54:	01 00 00 00 	nop 
    ca58:	c0 2f bf ff 	clrb  [ %fp + -1 ]
    ca5c:	c0 27 bf f8 	clr  [ %fp + -8 ]
    ca60:	c0 27 bf f8 	clr  [ %fp + -8 ]
    ca64:	10 80 00 5a 	b  cbcc <quest+0x57c>
    ca68:	01 00 00 00 	nop 
    ca6c:	c2 07 bf f8 	ld  [ %fp + -8 ], %g1
    ca70:	80 a0 60 04 	cmp  %g1, 4
    ca74:	14 80 00 2b 	bg  cb20 <quest+0x4d0>
    ca78:	01 00 00 00 	nop 
    ca7c:	c4 07 bf f8 	ld  [ %fp + -8 ], %g2
    ca80:	82 10 00 02 	mov  %g2, %g1
    ca84:	82 00 40 01 	add  %g1, %g1, %g1
    ca88:	82 00 40 02 	add  %g1, %g2, %g1
    ca8c:	83 28 60 03 	sll  %g1, 3, %g1
    ca90:	c4 07 bf d4 	ld  [ %fp + -44 ], %g2
    ca94:	82 00 80 01 	add  %g2, %g1, %g1
    ca98:	c6 07 a0 44 	ld  [ %fp + 0x44 ], %g3
    ca9c:	c4 07 bf f8 	ld  [ %fp + -8 ], %g2
    caa0:	85 28 a0 03 	sll  %g2, 3, %g2
    caa4:	84 00 c0 02 	add  %g3, %g2, %g2
    caa8:	d5 18 80 00 	ldd  [ %g2 ], %f10
    caac:	c4 07 a0 44 	ld  [ %fp + 0x44 ], %g2
    cab0:	86 00 a0 50 	add  %g2, 0x50, %g3
    cab4:	c4 07 bf f8 	ld  [ %fp + -8 ], %g2
    cab8:	85 28 a0 03 	sll  %g2, 3, %g2
    cabc:	84 00 c0 02 	add  %g3, %g2, %g2
    cac0:	d1 18 80 00 	ldd  [ %g2 ], %f8
    cac4:	c4 07 a0 44 	ld  [ %fp + 0x44 ], %g2
    cac8:	86 00 a0 a0 	add  %g2, 0xa0, %g3
    cacc:	c4 07 bf f8 	ld  [ %fp + -8 ], %g2
    cad0:	85 28 a0 03 	sll  %g2, 3, %g2
    cad4:	84 00 c0 02 	add  %g3, %g2, %g2
    cad8:	c4 18 80 00 	ldd  [ %g2 ], %g2
    cadc:	c4 3f bc e0 	std  %g2, [ %fp + -800 ]
    cae0:	c8 07 bc e4 	ld  [ %fp + -796 ], %g4
    cae4:	c8 23 a0 5c 	st  %g4, [ %sp + 0x5c ]
    cae8:	9a 10 00 02 	mov  %g2, %o5
    caec:	90 10 00 01 	mov  %g1, %o0
    caf0:	d5 3f bc d0 	std  %f10, [ %fp + -816 ]
    caf4:	c4 1f bc d0 	ldd  [ %fp + -816 ], %g2
    caf8:	92 10 00 02 	mov  %g2, %o1
    cafc:	94 10 00 03 	mov  %g3, %o2
    cb00:	d1 3f bc d0 	std  %f8, [ %fp + -816 ]
    cb04:	c4 1f bc d0 	ldd  [ %fp + -816 ], %g2
    cb08:	96 10 00 02 	mov  %g2, %o3
    cb0c:	98 10 00 03 	mov  %g3, %o4
    cb10:	7f ff fb a5 	call  b9a4 <Vec_construct>
    cb14:	01 00 00 00 	nop 
    cb18:	10 80 00 2a 	b  cbc0 <quest+0x570>
    cb1c:	01 00 00 00 	nop 
    cb20:	c2 07 bf f8 	ld  [ %fp + -8 ], %g1
    cb24:	84 00 7f fb 	add  %g1, -5, %g2
    cb28:	82 10 00 02 	mov  %g2, %g1
    cb2c:	82 00 40 01 	add  %g1, %g1, %g1
    cb30:	82 00 40 02 	add  %g1, %g2, %g1
    cb34:	83 28 60 03 	sll  %g1, 3, %g1
    cb38:	c4 07 bf dc 	ld  [ %fp + -36 ], %g2
    cb3c:	82 00 80 01 	add  %g2, %g1, %g1
    cb40:	c6 07 a0 44 	ld  [ %fp + 0x44 ], %g3
    cb44:	c4 07 bf f8 	ld  [ %fp + -8 ], %g2
    cb48:	85 28 a0 03 	sll  %g2, 3, %g2
    cb4c:	84 00 c0 02 	add  %g3, %g2, %g2
    cb50:	d5 18 80 00 	ldd  [ %g2 ], %f10
    cb54:	c4 07 a0 44 	ld  [ %fp + 0x44 ], %g2
    cb58:	86 00 a0 50 	add  %g2, 0x50, %g3
    cb5c:	c4 07 bf f8 	ld  [ %fp + -8 ], %g2
    cb60:	85 28 a0 03 	sll  %g2, 3, %g2
    cb64:	84 00 c0 02 	add  %g3, %g2, %g2
    cb68:	d1 18 80 00 	ldd  [ %g2 ], %f8
    cb6c:	c4 07 a0 44 	ld  [ %fp + 0x44 ], %g2
    cb70:	86 00 a0 a0 	add  %g2, 0xa0, %g3
    cb74:	c4 07 bf f8 	ld  [ %fp + -8 ], %g2
    cb78:	85 28 a0 03 	sll  %g2, 3, %g2
    cb7c:	84 00 c0 02 	add  %g3, %g2, %g2
    cb80:	c4 18 80 00 	ldd  [ %g2 ], %g2
    cb84:	c4 3f bc e0 	std  %g2, [ %fp + -800 ]
    cb88:	c8 07 bc e4 	ld  [ %fp + -796 ], %g4
    cb8c:	c8 23 a0 5c 	st  %g4, [ %sp + 0x5c ]
    cb90:	9a 10 00 02 	mov  %g2, %o5
    cb94:	90 10 00 01 	mov  %g1, %o0
    cb98:	d5 3f bc d0 	std  %f10, [ %fp + -816 ]
    cb9c:	c4 1f bc d0 	ldd  [ %fp + -816 ], %g2
    cba0:	92 10 00 02 	mov  %g2, %o1
    cba4:	94 10 00 03 	mov  %g3, %o2
    cba8:	d1 3f bc d0 	std  %f8, [ %fp + -816 ]
    cbac:	c4 1f bc d0 	ldd  [ %fp + -816 ], %g2
    cbb0:	96 10 00 02 	mov  %g2, %o3
    cbb4:	98 10 00 03 	mov  %g3, %o4
    cbb8:	7f ff fb 7b 	call  b9a4 <Vec_construct>
    cbbc:	01 00 00 00 	nop 
    cbc0:	c2 07 bf f8 	ld  [ %fp + -8 ], %g1
    cbc4:	82 00 60 01 	inc  %g1
    cbc8:	c2 27 bf f8 	st  %g1, [ %fp + -8 ]
    cbcc:	c2 07 bf f8 	ld  [ %fp + -8 ], %g1
    cbd0:	80 a0 60 09 	cmp  %g1, 9
    cbd4:	04 bf ff a6 	ble  ca6c <quest+0x41c>
    cbd8:	01 00 00 00 	nop 
    cbdc:	c2 0f bf ff 	ldub  [ %fp + -1 ], %g1
    cbe0:	82 08 60 ff 	and  %g1, 0xff, %g1
    cbe4:	80 a0 60 01 	cmp  %g1, 1
    cbe8:	12 80 00 30 	bne  cca8 <quest+0x658>
    cbec:	01 00 00 00 	nop 
    cbf0:	c0 27 bf f8 	clr  [ %fp + -8 ]
    cbf4:	10 80 00 27 	b  cc90 <quest+0x640>
    cbf8:	01 00 00 00 	nop 
    cbfc:	c6 07 bf d4 	ld  [ %fp + -44 ], %g3
    cc00:	c4 07 bf f8 	ld  [ %fp + -8 ], %g2
    cc04:	82 10 00 02 	mov  %g2, %g1
    cc08:	82 00 40 01 	add  %g1, %g1, %g1
    cc0c:	82 00 40 02 	add  %g1, %g2, %g1
    cc10:	83 28 60 03 	sll  %g1, 3, %g1
    cc14:	82 00 c0 01 	add  %g3, %g1, %g1
    cc18:	d1 18 60 08 	ldd  [ %g1 + 8 ], %f8
    cc1c:	91 a0 00 a8 	fnegs  %f8, %f8
    cc20:	c6 07 bf d4 	ld  [ %fp + -44 ], %g3
    cc24:	c4 07 bf f8 	ld  [ %fp + -8 ], %g2
    cc28:	82 10 00 02 	mov  %g2, %g1
    cc2c:	82 00 40 01 	add  %g1, %g1, %g1
    cc30:	82 00 40 02 	add  %g1, %g2, %g1
    cc34:	83 28 60 03 	sll  %g1, 3, %g1
    cc38:	82 00 c0 01 	add  %g3, %g1, %g1
    cc3c:	d1 38 60 08 	std  %f8, [ %g1 + 8 ]
    cc40:	c6 07 bf d4 	ld  [ %fp + -44 ], %g3
    cc44:	c4 07 bf f8 	ld  [ %fp + -8 ], %g2
    cc48:	82 10 00 02 	mov  %g2, %g1
    cc4c:	82 00 40 01 	add  %g1, %g1, %g1
    cc50:	82 00 40 02 	add  %g1, %g2, %g1
    cc54:	83 28 60 03 	sll  %g1, 3, %g1
    cc58:	82 00 c0 01 	add  %g3, %g1, %g1
    cc5c:	d1 18 60 10 	ldd  [ %g1 + 0x10 ], %f8
    cc60:	91 a0 00 a8 	fnegs  %f8, %f8
    cc64:	c6 07 bf d4 	ld  [ %fp + -44 ], %g3
    cc68:	c4 07 bf f8 	ld  [ %fp + -8 ], %g2
    cc6c:	82 10 00 02 	mov  %g2, %g1
    cc70:	82 00 40 01 	add  %g1, %g1, %g1
    cc74:	82 00 40 02 	add  %g1, %g2, %g1
    cc78:	83 28 60 03 	sll  %g1, 3, %g1
    cc7c:	82 00 c0 01 	add  %g3, %g1, %g1
    cc80:	d1 38 60 10 	std  %f8, [ %g1 + 0x10 ]
    cc84:	c2 07 bf f8 	ld  [ %fp + -8 ], %g1
    cc88:	82 00 60 01 	inc  %g1
    cc8c:	c2 27 bf f8 	st  %g1, [ %fp + -8 ]
    cc90:	c2 0f bf e7 	ldub  [ %fp + -25 ], %g1
    cc94:	84 08 60 ff 	and  %g1, 0xff, %g2
    cc98:	c2 07 bf f8 	ld  [ %fp + -8 ], %g1
    cc9c:	80 a0 80 01 	cmp  %g2, %g1
    cca0:	14 bf ff d7 	bg  cbfc <quest+0x5ac>
    cca4:	01 00 00 00 	nop 
    cca8:	c2 0f bf ff 	ldub  [ %fp + -1 ], %g1
    ccac:	82 08 60 ff 	and  %g1, 0xff, %g1
    ccb0:	80 a0 60 02 	cmp  %g1, 2
    ccb4:	12 80 00 30 	bne  cd74 <quest+0x724>
    ccb8:	01 00 00 00 	nop 
    ccbc:	c0 27 bf f8 	clr  [ %fp + -8 ]
    ccc0:	10 80 00 27 	b  cd5c <quest+0x70c>
    ccc4:	01 00 00 00 	nop 
    ccc8:	c6 07 bf d4 	ld  [ %fp + -44 ], %g3
    cccc:	c4 07 bf f8 	ld  [ %fp + -8 ], %g2
    ccd0:	82 10 00 02 	mov  %g2, %g1
    ccd4:	82 00 40 01 	add  %g1, %g1, %g1
    ccd8:	82 00 40 02 	add  %g1, %g2, %g1
    ccdc:	83 28 60 03 	sll  %g1, 3, %g1
    cce0:	82 00 c0 01 	add  %g3, %g1, %g1
    cce4:	d1 18 40 00 	ldd  [ %g1 ], %f8
    cce8:	91 a0 00 a8 	fnegs  %f8, %f8
    ccec:	c6 07 bf d4 	ld  [ %fp + -44 ], %g3
    ccf0:	c4 07 bf f8 	ld  [ %fp + -8 ], %g2
    ccf4:	82 10 00 02 	mov  %g2, %g1
    ccf8:	82 00 40 01 	add  %g1, %g1, %g1
    ccfc:	82 00 40 02 	add  %g1, %g2, %g1
    cd00:	83 28 60 03 	sll  %g1, 3, %g1
    cd04:	82 00 c0 01 	add  %g3, %g1, %g1
    cd08:	d1 38 40 00 	std  %f8, [ %g1 ]
    cd0c:	c6 07 bf d4 	ld  [ %fp + -44 ], %g3
    cd10:	c4 07 bf f8 	ld  [ %fp + -8 ], %g2
    cd14:	82 10 00 02 	mov  %g2, %g1
    cd18:	82 00 40 01 	add  %g1, %g1, %g1
    cd1c:	82 00 40 02 	add  %g1, %g2, %g1
    cd20:	83 28 60 03 	sll  %g1, 3, %g1
    cd24:	82 00 c0 01 	add  %g3, %g1, %g1
    cd28:	d1 18 60 10 	ldd  [ %g1 + 0x10 ], %f8
    cd2c:	91 a0 00 a8 	fnegs  %f8, %f8
    cd30:	c6 07 bf d4 	ld  [ %fp + -44 ], %g3
    cd34:	c4 07 bf f8 	ld  [ %fp + -8 ], %g2
    cd38:	82 10 00 02 	mov  %g2, %g1
    cd3c:	82 00 40 01 	add  %g1, %g1, %g1
    cd40:	82 00 40 02 	add  %g1, %g2, %g1
    cd44:	83 28 60 03 	sll  %g1, 3, %g1
    cd48:	82 00 c0 01 	add  %g3, %g1, %g1
    cd4c:	d1 38 60 10 	std  %f8, [ %g1 + 0x10 ]
    cd50:	c2 07 bf f8 	ld  [ %fp + -8 ], %g1
    cd54:	82 00 60 01 	inc  %g1
    cd58:	c2 27 bf f8 	st  %g1, [ %fp + -8 ]
    cd5c:	c2 0f bf e7 	ldub  [ %fp + -25 ], %g1
    cd60:	84 08 60 ff 	and  %g1, 0xff, %g2
    cd64:	c2 07 bf f8 	ld  [ %fp + -8 ], %g1
    cd68:	80 a0 80 01 	cmp  %g2, %g1
    cd6c:	14 bf ff d7 	bg  ccc8 <quest+0x678>
    cd70:	01 00 00 00 	nop 
    cd74:	c2 0f bf ff 	ldub  [ %fp + -1 ], %g1
    cd78:	82 08 60 ff 	and  %g1, 0xff, %g1
    cd7c:	80 a0 60 03 	cmp  %g1, 3
    cd80:	12 80 00 30 	bne  ce40 <quest+0x7f0>
    cd84:	01 00 00 00 	nop 
    cd88:	c0 27 bf f8 	clr  [ %fp + -8 ]
    cd8c:	10 80 00 27 	b  ce28 <quest+0x7d8>
    cd90:	01 00 00 00 	nop 
    cd94:	c6 07 bf d4 	ld  [ %fp + -44 ], %g3
    cd98:	c4 07 bf f8 	ld  [ %fp + -8 ], %g2
    cd9c:	82 10 00 02 	mov  %g2, %g1
    cda0:	82 00 40 01 	add  %g1, %g1, %g1
    cda4:	82 00 40 02 	add  %g1, %g2, %g1
    cda8:	83 28 60 03 	sll  %g1, 3, %g1
    cdac:	82 00 c0 01 	add  %g3, %g1, %g1
    cdb0:	d1 18 60 08 	ldd  [ %g1 + 8 ], %f8
    cdb4:	91 a0 00 a8 	fnegs  %f8, %f8
    cdb8:	c6 07 bf d4 	ld  [ %fp + -44 ], %g3
    cdbc:	c4 07 bf f8 	ld  [ %fp + -8 ], %g2
    cdc0:	82 10 00 02 	mov  %g2, %g1
    cdc4:	82 00 40 01 	add  %g1, %g1, %g1
    cdc8:	82 00 40 02 	add  %g1, %g2, %g1
    cdcc:	83 28 60 03 	sll  %g1, 3, %g1
    cdd0:	82 00 c0 01 	add  %g3, %g1, %g1
    cdd4:	d1 38 60 08 	std  %f8, [ %g1 + 8 ]
    cdd8:	c6 07 bf d4 	ld  [ %fp + -44 ], %g3
    cddc:	c4 07 bf f8 	ld  [ %fp + -8 ], %g2
    cde0:	82 10 00 02 	mov  %g2, %g1
    cde4:	82 00 40 01 	add  %g1, %g1, %g1
    cde8:	82 00 40 02 	add  %g1, %g2, %g1
    cdec:	83 28 60 03 	sll  %g1, 3, %g1
    cdf0:	82 00 c0 01 	add  %g3, %g1, %g1
    cdf4:	d1 18 40 00 	ldd  [ %g1 ], %f8
    cdf8:	91 a0 00 a8 	fnegs  %f8, %f8
    cdfc:	c6 07 bf d4 	ld  [ %fp + -44 ], %g3
    ce00:	c4 07 bf f8 	ld  [ %fp + -8 ], %g2
    ce04:	82 10 00 02 	mov  %g2, %g1
    ce08:	82 00 40 01 	add  %g1, %g1, %g1
    ce0c:	82 00 40 02 	add  %g1, %g2, %g1
    ce10:	83 28 60 03 	sll  %g1, 3, %g1
    ce14:	82 00 c0 01 	add  %g3, %g1, %g1
    ce18:	d1 38 40 00 	std  %f8, [ %g1 ]
    ce1c:	c2 07 bf f8 	ld  [ %fp + -8 ], %g1
    ce20:	82 00 60 01 	inc  %g1
    ce24:	c2 27 bf f8 	st  %g1, [ %fp + -8 ]
    ce28:	c2 0f bf e7 	ldub  [ %fp + -25 ], %g1
    ce2c:	84 08 60 ff 	and  %g1, 0xff, %g2
    ce30:	c2 07 bf f8 	ld  [ %fp + -8 ], %g1
    ce34:	80 a0 80 01 	cmp  %g2, %g1
    ce38:	14 bf ff d7 	bg  cd94 <quest+0x744>
    ce3c:	01 00 00 00 	nop 
    ce40:	c0 27 bf f8 	clr  [ %fp + -8 ]
    ce44:	10 80 00 2e 	b  cefc <quest+0x8ac>
    ce48:	01 00 00 00 	nop 
    ce4c:	c4 07 bf f8 	ld  [ %fp + -8 ], %g2
    ce50:	82 10 00 02 	mov  %g2, %g1
    ce54:	82 00 40 01 	add  %g1, %g1, %g1
    ce58:	82 00 40 02 	add  %g1, %g2, %g1
    ce5c:	83 28 60 03 	sll  %g1, 3, %g1
    ce60:	c4 07 bf dc 	ld  [ %fp + -36 ], %g2
    ce64:	86 00 80 01 	add  %g2, %g1, %g3
    ce68:	c4 07 bf f8 	ld  [ %fp + -8 ], %g2
    ce6c:	82 10 00 02 	mov  %g2, %g1
    ce70:	82 00 40 01 	add  %g1, %g1, %g1
    ce74:	82 00 40 02 	add  %g1, %g2, %g1
    ce78:	83 28 60 03 	sll  %g1, 3, %g1
    ce7c:	c4 07 bf d4 	ld  [ %fp + -44 ], %g2
    ce80:	82 00 80 01 	add  %g2, %g1, %g1
    ce84:	84 07 bc e8 	add  %fp, -792, %g2
    ce88:	90 10 00 02 	mov  %g2, %o0
    ce8c:	92 10 00 03 	mov  %g3, %o1
    ce90:	94 10 00 01 	mov  %g1, %o2
    ce94:	7f ff fd 40 	call  c394 <outer_product>
    ce98:	01 00 00 00 	nop 
    ce9c:	c4 07 bf c0 	ld  [ %fp + -64 ], %g2
    cea0:	c2 07 bf f8 	ld  [ %fp + -8 ], %g1
    cea4:	83 28 60 03 	sll  %g1, 3, %g1
    cea8:	82 00 80 01 	add  %g2, %g1, %g1
    ceac:	d1 18 40 00 	ldd  [ %g1 ], %f8
    ceb0:	84 07 bc e8 	add  %fp, -792, %g2
    ceb4:	82 07 bc e8 	add  %fp, -792, %g1
    ceb8:	90 10 00 02 	mov  %g2, %o0
    cebc:	92 10 00 01 	mov  %g1, %o1
    cec0:	d1 3f bc d0 	std  %f8, [ %fp + -816 ]
    cec4:	d4 1f bc d0 	ldd  [ %fp + -816 ], %o2
    cec8:	7f ff fc 05 	call  bedc <scale_matrix>
    cecc:	01 00 00 00 	nop 
    ced0:	86 07 bf 40 	add  %fp, -192, %g3
    ced4:	84 07 bf 40 	add  %fp, -192, %g2
    ced8:	82 07 bc e8 	add  %fp, -792, %g1
    cedc:	90 10 00 03 	mov  %g3, %o0
    cee0:	92 10 00 02 	mov  %g2, %o1
    cee4:	94 10 00 01 	mov  %g1, %o2
    cee8:	7f ff fb b9 	call  bdcc <add_matrix>
    ceec:	01 00 00 00 	nop 
    cef0:	c2 07 bf f8 	ld  [ %fp + -8 ], %g1
    cef4:	82 00 60 01 	inc  %g1
    cef8:	c2 27 bf f8 	st  %g1, [ %fp + -8 ]
    cefc:	c2 0f bf e7 	ldub  [ %fp + -25 ], %g1
    cf00:	84 08 60 ff 	and  %g1, 0xff, %g2
    cf04:	c2 07 bf f8 	ld  [ %fp + -8 ], %g1
    cf08:	80 a0 80 01 	cmp  %g2, %g1
    cf0c:	14 bf ff d0 	bg  ce4c <quest+0x7fc>
    cf10:	01 00 00 00 	nop 
    cf14:	c0 27 bf f8 	clr  [ %fp + -8 ]
    cf18:	10 80 00 2e 	b  cfd0 <quest+0x980>
    cf1c:	01 00 00 00 	nop 
    cf20:	c4 07 bf f8 	ld  [ %fp + -8 ], %g2
    cf24:	82 10 00 02 	mov  %g2, %g1
    cf28:	82 00 40 01 	add  %g1, %g1, %g1
    cf2c:	82 00 40 02 	add  %g1, %g2, %g1
    cf30:	83 28 60 03 	sll  %g1, 3, %g1
    cf34:	c4 07 bf dc 	ld  [ %fp + -36 ], %g2
    cf38:	86 00 80 01 	add  %g2, %g1, %g3
    cf3c:	c4 07 bf f8 	ld  [ %fp + -8 ], %g2
    cf40:	82 10 00 02 	mov  %g2, %g1
    cf44:	82 00 40 01 	add  %g1, %g1, %g1
    cf48:	82 00 40 02 	add  %g1, %g2, %g1
    cf4c:	83 28 60 03 	sll  %g1, 3, %g1
    cf50:	c4 07 bf d4 	ld  [ %fp + -44 ], %g2
    cf54:	82 00 80 01 	add  %g2, %g1, %g1
    cf58:	84 07 bd 78 	add  %fp, -648, %g2
    cf5c:	90 10 00 02 	mov  %g2, %o0
    cf60:	92 10 00 03 	mov  %g3, %o1
    cf64:	94 10 00 01 	mov  %g1, %o2
    cf68:	7f ff fa a6 	call  ba00 <cross>
    cf6c:	01 00 00 00 	nop 
    cf70:	c4 07 bf c0 	ld  [ %fp + -64 ], %g2
    cf74:	c2 07 bf f8 	ld  [ %fp + -8 ], %g1
    cf78:	83 28 60 03 	sll  %g1, 3, %g1
    cf7c:	82 00 80 01 	add  %g2, %g1, %g1
    cf80:	d1 18 40 00 	ldd  [ %g1 ], %f8
    cf84:	82 07 bd 78 	add  %fp, -648, %g1
    cf88:	90 10 00 01 	mov  %g1, %o0
    cf8c:	d1 3f bc d0 	std  %f8, [ %fp + -816 ]
    cf90:	d8 1f bc d0 	ldd  [ %fp + -816 ], %o4
    cf94:	92 10 00 0c 	mov  %o4, %o1
    cf98:	94 10 00 0d 	mov  %o5, %o2
    cf9c:	7f ff fa e0 	call  bb1c <scale_vec>
    cfa0:	01 00 00 00 	nop 
    cfa4:	86 07 be e0 	add  %fp, -288, %g3
    cfa8:	84 07 be e0 	add  %fp, -288, %g2
    cfac:	82 07 bd 78 	add  %fp, -648, %g1
    cfb0:	90 10 00 03 	mov  %g3, %o0
    cfb4:	92 10 00 02 	mov  %g2, %o1
    cfb8:	94 10 00 01 	mov  %g1, %o2
    cfbc:	7f ff fa f1 	call  bb80 <add_vec>
    cfc0:	01 00 00 00 	nop 
    cfc4:	c2 07 bf f8 	ld  [ %fp + -8 ], %g1
    cfc8:	82 00 60 01 	inc  %g1
    cfcc:	c2 27 bf f8 	st  %g1, [ %fp + -8 ]
    cfd0:	c2 0f bf e7 	ldub  [ %fp + -25 ], %g1
    cfd4:	84 08 60 ff 	and  %g1, 0xff, %g2
    cfd8:	c2 07 bf f8 	ld  [ %fp + -8 ], %g1
    cfdc:	80 a0 80 01 	cmp  %g2, %g1
    cfe0:	14 bf ff d0 	bg  cf20 <quest+0x8d0>
    cfe4:	01 00 00 00 	nop 
    cfe8:	82 07 bf 40 	add  %fp, -192, %g1
    cfec:	90 10 00 01 	mov  %g1, %o0
    cff0:	7f ff fc 29 	call  c094 <trace>
    cff4:	01 00 00 00 	nop 
    cff8:	91 a0 00 20 	fmovs  %f0, %f8
    cffc:	93 a0 00 21 	fmovs  %f1, %f9
    d000:	d1 3f bd e8 	std  %f8, [ %fp + -536 ]
    d004:	84 07 be f8 	add  %fp, -264, %g2
    d008:	82 07 bf 40 	add  %fp, -192, %g1
    d00c:	90 10 00 02 	mov  %g2, %o0
    d010:	92 10 00 01 	mov  %g1, %o1
    d014:	7f ff fc 2f 	call  c0d0 <T>
    d018:	01 00 00 00 	nop 
    d01c:	86 07 be f8 	add  %fp, -264, %g3
    d020:	84 07 be f8 	add  %fp, -264, %g2
    d024:	82 07 bf 40 	add  %fp, -192, %g1
    d028:	90 10 00 03 	mov  %g3, %o0
    d02c:	92 10 00 02 	mov  %g2, %o1
    d030:	94 10 00 01 	mov  %g1, %o2
    d034:	7f ff fb 66 	call  bdcc <add_matrix>
    d038:	01 00 00 00 	nop 
    d03c:	84 07 be 98 	add  %fp, -360, %g2
    d040:	82 07 be f8 	add  %fp, -264, %g1
    d044:	90 10 00 02 	mov  %g2, %o0
    d048:	92 10 00 01 	mov  %g1, %o1
    d04c:	7f ff fc 57 	call  c1a8 <adjoint>
    d050:	01 00 00 00 	nop 
    d054:	82 07 be 98 	add  %fp, -360, %g1
    d058:	90 10 00 01 	mov  %g1, %o0
    d05c:	7f ff fc 0e 	call  c094 <trace>
    d060:	01 00 00 00 	nop 
    d064:	91 a0 00 20 	fmovs  %f0, %f8
    d068:	93 a0 00 21 	fmovs  %f1, %f9
    d06c:	d1 3f bd e0 	std  %f8, [ %fp + -544 ]
    d070:	d5 1f be e0 	ldd  [ %fp + -288 ], %f10
    d074:	d1 1f be e0 	ldd  [ %fp + -288 ], %f8
    d078:	95 a2 89 48 	fmuld  %f10, %f8, %f10
    d07c:	d9 1f be e8 	ldd  [ %fp + -280 ], %f12
    d080:	d1 1f be e8 	ldd  [ %fp + -280 ], %f8
    d084:	91 a3 09 48 	fmuld  %f12, %f8, %f8
    d088:	95 a2 88 48 	faddd  %f10, %f8, %f10
    d08c:	d9 1f be f0 	ldd  [ %fp + -272 ], %f12
    d090:	d1 1f be f0 	ldd  [ %fp + -272 ], %f8
    d094:	91 a3 09 48 	fmuld  %f12, %f8, %f8
    d098:	91 a2 88 48 	faddd  %f10, %f8, %f8
    d09c:	d1 3f bd d8 	std  %f8, [ %fp + -552 ]
    d0a0:	82 07 be f8 	add  %fp, -264, %g1
    d0a4:	90 10 00 01 	mov  %g1, %o0
    d0a8:	7f ff fb c6 	call  bfc0 <det>
    d0ac:	01 00 00 00 	nop 
    d0b0:	91 a0 00 20 	fmovs  %f0, %f8
    d0b4:	93 a0 00 21 	fmovs  %f1, %f9
    d0b8:	d1 3f bd c8 	std  %f8, [ %fp + -568 ]
    d0bc:	86 07 bd a8 	add  %fp, -600, %g3
    d0c0:	84 07 be f8 	add  %fp, -264, %g2
    d0c4:	82 07 be e0 	add  %fp, -288, %g1
    d0c8:	90 10 00 03 	mov  %g3, %o0
    d0cc:	92 10 00 02 	mov  %g2, %o1
    d0d0:	94 10 00 01 	mov  %g1, %o2
    d0d4:	7f ff fc f6 	call  c4ac <matmul>
    d0d8:	01 00 00 00 	nop 
    d0dc:	84 07 be e0 	add  %fp, -288, %g2
    d0e0:	82 07 bd a8 	add  %fp, -600, %g1
    d0e4:	90 10 00 02 	mov  %g2, %o0
    d0e8:	92 10 00 01 	mov  %g1, %o1
    d0ec:	7f ff fa 73 	call  bab8 <dot>
    d0f0:	01 00 00 00 	nop 
    d0f4:	91 a0 00 20 	fmovs  %f0, %f8
    d0f8:	93 a0 00 21 	fmovs  %f1, %f9
    d0fc:	d1 3f bd d0 	std  %f8, [ %fp + -560 ]
    d100:	86 07 bd 90 	add  %fp, -624, %g3
    d104:	84 07 be f8 	add  %fp, -264, %g2
    d108:	82 07 bd a8 	add  %fp, -600, %g1
    d10c:	90 10 00 03 	mov  %g3, %o0
    d110:	92 10 00 02 	mov  %g2, %o1
    d114:	94 10 00 01 	mov  %g1, %o2
    d118:	7f ff fc e5 	call  c4ac <matmul>
    d11c:	01 00 00 00 	nop 
    d120:	84 07 be e0 	add  %fp, -288, %g2
    d124:	82 07 bd 90 	add  %fp, -624, %g1
    d128:	90 10 00 02 	mov  %g2, %o0
    d12c:	92 10 00 01 	mov  %g1, %o1
    d130:	7f ff fa 62 	call  bab8 <dot>
    d134:	01 00 00 00 	nop 
    d138:	91 a0 00 20 	fmovs  %f0, %f8
    d13c:	93 a0 00 21 	fmovs  %f1, %f9
    d140:	d1 3f bd c0 	std  %f8, [ %fp + -576 ]
    d144:	d1 1f bf b8 	ldd  [ %fp + -72 ], %f8
    d148:	d1 3f bf f0 	std  %f8, [ %fp + -16 ]
    d14c:	c0 27 bf f8 	clr  [ %fp + -8 ]
    d150:	10 80 00 17 	b  d1ac <quest+0xb5c>
    d154:	01 00 00 00 	nop 
    d158:	82 07 bd c0 	add  %fp, -576, %g1
    d15c:	84 10 00 01 	mov  %g1, %g2
    d160:	d0 1f bf f0 	ldd  [ %fp + -16 ], %o0
    d164:	7f ff fd 12 	call  c5ac <f.1204>
    d168:	01 00 00 00 	nop 
    d16c:	c1 3f bf b0 	std  %f0, [ %fp + -80 ]
    d170:	82 07 bd c0 	add  %fp, -576, %g1
    d174:	84 10 00 01 	mov  %g1, %g2
    d178:	d0 1f bf f0 	ldd  [ %fp + -16 ], %o0
    d17c:	40 00 01 84 	call  d78c <f_bar.1209>
    d180:	01 00 00 00 	nop 
    d184:	c1 3f bf a8 	std  %f0, [ %fp + -88 ]
    d188:	d5 1f bf b0 	ldd  [ %fp + -80 ], %f10
    d18c:	d1 1f bf a8 	ldd  [ %fp + -88 ], %f8
    d190:	91 a2 89 c8 	fdivd  %f10, %f8, %f8
    d194:	d5 1f bf f0 	ldd  [ %fp + -16 ], %f10
    d198:	91 a2 88 c8 	fsubd  %f10, %f8, %f8
    d19c:	d1 3f bf f0 	std  %f8, [ %fp + -16 ]
    d1a0:	c2 07 bf f8 	ld  [ %fp + -8 ], %g1
    d1a4:	82 00 60 01 	inc  %g1
    d1a8:	c2 27 bf f8 	st  %g1, [ %fp + -8 ]
    d1ac:	c2 07 bf f8 	ld  [ %fp + -8 ], %g1
    d1b0:	80 a0 60 04 	cmp  %g1, 4
    d1b4:	04 bf ff e9 	ble  d158 <quest+0xb08>
    d1b8:	01 00 00 00 	nop 
    d1bc:	d1 1f bd e8 	ldd  [ %fp + -536 ], %f8
    d1c0:	d5 1f bf f0 	ldd  [ %fp + -16 ], %f10
    d1c4:	91 a2 88 48 	faddd  %f10, %f8, %f8
    d1c8:	d1 3f bf f0 	std  %f8, [ %fp + -16 ]
    d1cc:	82 07 bc e8 	add  %fp, -792, %g1
    d1d0:	90 10 00 01 	mov  %g1, %o0
    d1d4:	92 10 20 01 	mov  1, %o1
    d1d8:	7f ff fa 86 	call  bbf0 <matrix_construct>
    d1dc:	01 00 00 00 	nop 
    d1e0:	84 07 bc e8 	add  %fp, -792, %g2
    d1e4:	82 07 bc e8 	add  %fp, -792, %g1
    d1e8:	90 10 00 02 	mov  %g2, %o0
    d1ec:	92 10 00 01 	mov  %g1, %o1
    d1f0:	d4 1f bf f0 	ldd  [ %fp + -16 ], %o2
    d1f4:	7f ff fb 3a 	call  bedc <scale_matrix>
    d1f8:	01 00 00 00 	nop 
    d1fc:	84 07 be 50 	add  %fp, -432, %g2
    d200:	82 07 be f8 	add  %fp, -264, %g1
    d204:	07 00 00 42 	sethi  %hi(0x10800), %g3
    d208:	86 10 e1 30 	or  %g3, 0x130, %g3	! 10930 <PAGE_TABLE_BASE+0x530>
    d20c:	d1 18 c0 00 	ldd  [ %g3 ], %f8
    d210:	90 10 00 02 	mov  %g2, %o0
    d214:	92 10 00 01 	mov  %g1, %o1
    d218:	d1 3f bc d0 	std  %f8, [ %fp + -816 ]
    d21c:	d4 1f bc d0 	ldd  [ %fp + -816 ], %o2
    d220:	7f ff fb 2f 	call  bedc <scale_matrix>
    d224:	01 00 00 00 	nop 
    d228:	86 07 be 50 	add  %fp, -432, %g3
    d22c:	84 07 be 50 	add  %fp, -432, %g2
    d230:	82 07 bc e8 	add  %fp, -792, %g1
    d234:	90 10 00 03 	mov  %g3, %o0
    d238:	92 10 00 02 	mov  %g2, %o1
    d23c:	94 10 00 01 	mov  %g1, %o2
    d240:	7f ff fa e3 	call  bdcc <add_matrix>
    d244:	01 00 00 00 	nop 
    d248:	c2 0f bf ff 	ldub  [ %fp + -1 ], %g1
    d24c:	82 00 60 01 	inc  %g1
    d250:	c2 2f bf ff 	stb  %g1, [ %fp + -1 ]
    d254:	82 07 be 50 	add  %fp, -432, %g1
    d258:	90 10 00 01 	mov  %g1, %o0
    d25c:	7f ff fb 59 	call  bfc0 <det>
    d260:	01 00 00 00 	nop 
    d264:	95 a0 00 20 	fmovs  %f0, %f10
    d268:	97 a0 00 21 	fmovs  %f1, %f11
    d26c:	d1 1f bf c8 	ldd  [ %fp + -56 ], %f8
    d270:	81 aa 8a c8 	fcmped  %f10, %f8
    d274:	01 00 00 00 	nop 
    d278:	09 bf fe 59 	fbl  cbdc <quest+0x58c>
    d27c:	01 00 00 00 	nop 
    d280:	82 07 be 50 	add  %fp, -432, %g1
    d284:	90 10 00 01 	mov  %g1, %o0
    d288:	7f ff fb 4e 	call  bfc0 <det>
    d28c:	01 00 00 00 	nop 
    d290:	c1 3f bf e8 	std  %f0, [ %fp + -24 ]
    d294:	84 07 bd f0 	add  %fp, -528, %g2
    d298:	82 07 be 50 	add  %fp, -432, %g1
    d29c:	90 10 00 02 	mov  %g2, %o0
    d2a0:	92 10 00 01 	mov  %g1, %o1
    d2a4:	7f ff fb c1 	call  c1a8 <adjoint>
    d2a8:	01 00 00 00 	nop 
    d2ac:	86 07 be 38 	add  %fp, -456, %g3
    d2b0:	84 07 bd f0 	add  %fp, -528, %g2
    d2b4:	82 07 be e0 	add  %fp, -288, %g1
    d2b8:	90 10 00 03 	mov  %g3, %o0
    d2bc:	92 10 00 02 	mov  %g2, %o1
    d2c0:	94 10 00 01 	mov  %g1, %o2
    d2c4:	7f ff fc 7a 	call  c4ac <matmul>
    d2c8:	01 00 00 00 	nop 
    d2cc:	c2 0f bf ff 	ldub  [ %fp + -1 ], %g1
    d2d0:	82 08 60 ff 	and  %g1, 0xff, %g1
    d2d4:	80 a0 60 02 	cmp  %g1, 2
    d2d8:	12 80 00 3f 	bne  d3d4 <quest+0xd84>
    d2dc:	01 00 00 00 	nop 
    d2e0:	82 07 bd 60 	add  %fp, -672, %g1
    d2e4:	05 00 00 42 	sethi  %hi(0x10800), %g2
    d2e8:	84 10 a1 20 	or  %g2, 0x120, %g2	! 10920 <PAGE_TABLE_BASE+0x520>
    d2ec:	d5 18 80 00 	ldd  [ %g2 ], %f10
    d2f0:	05 00 00 42 	sethi  %hi(0x10800), %g2
    d2f4:	84 10 a1 28 	or  %g2, 0x128, %g2	! 10928 <PAGE_TABLE_BASE+0x528>
    d2f8:	d1 18 80 00 	ldd  [ %g2 ], %f8
    d2fc:	05 00 00 42 	sethi  %hi(0x10800), %g2
    d300:	84 10 a1 28 	or  %g2, 0x128, %g2	! 10928 <PAGE_TABLE_BASE+0x528>
    d304:	c4 18 80 00 	ldd  [ %g2 ], %g2
    d308:	c4 3f bc e0 	std  %g2, [ %fp + -800 ]
    d30c:	c8 07 bc e4 	ld  [ %fp + -796 ], %g4
    d310:	c8 23 a0 5c 	st  %g4, [ %sp + 0x5c ]
    d314:	9a 10 00 02 	mov  %g2, %o5
    d318:	90 10 00 01 	mov  %g1, %o0
    d31c:	d5 3f bc d0 	std  %f10, [ %fp + -816 ]
    d320:	c4 1f bc d0 	ldd  [ %fp + -816 ], %g2
    d324:	92 10 00 02 	mov  %g2, %o1
    d328:	94 10 00 03 	mov  %g3, %o2
    d32c:	d1 3f bc d0 	std  %f8, [ %fp + -816 ]
    d330:	c4 1f bc d0 	ldd  [ %fp + -816 ], %g2
    d334:	96 10 00 02 	mov  %g2, %o3
    d338:	98 10 00 03 	mov  %g3, %o4
    d33c:	7f ff f9 9a 	call  b9a4 <Vec_construct>
    d340:	01 00 00 00 	nop 
    d344:	84 07 bd 60 	add  %fp, -672, %g2
    d348:	82 07 be 38 	add  %fp, -456, %g1
    d34c:	90 10 00 02 	mov  %g2, %o0
    d350:	92 10 00 01 	mov  %g1, %o1
    d354:	7f ff f9 d9 	call  bab8 <dot>
    d358:	01 00 00 00 	nop 
    d35c:	91 a0 00 20 	fmovs  %f0, %f8
    d360:	93 a0 00 21 	fmovs  %f1, %f9
    d364:	91 a0 00 a8 	fnegs  %f8, %f8
    d368:	d1 3f bf a0 	std  %f8, [ %fp + -96 ]
    d36c:	86 07 be 38 	add  %fp, -456, %g3
    d370:	84 07 bd 60 	add  %fp, -672, %g2
    d374:	82 07 be 38 	add  %fp, -456, %g1
    d378:	90 10 00 03 	mov  %g3, %o0
    d37c:	92 10 00 02 	mov  %g2, %o1
    d380:	94 10 00 01 	mov  %g1, %o2
    d384:	7f ff f9 9f 	call  ba00 <cross>
    d388:	01 00 00 00 	nop 
    d38c:	82 07 bd 60 	add  %fp, -672, %g1
    d390:	90 10 00 01 	mov  %g1, %o0
    d394:	d2 07 bf e8 	ld  [ %fp + -24 ], %o1
    d398:	d4 07 bf ec 	ld  [ %fp + -20 ], %o2
    d39c:	7f ff f9 e0 	call  bb1c <scale_vec>
    d3a0:	01 00 00 00 	nop 
    d3a4:	86 07 be 38 	add  %fp, -456, %g3
    d3a8:	84 07 be 38 	add  %fp, -456, %g2
    d3ac:	82 07 bd 60 	add  %fp, -672, %g1
    d3b0:	90 10 00 03 	mov  %g3, %o0
    d3b4:	92 10 00 02 	mov  %g2, %o1
    d3b8:	94 10 00 01 	mov  %g1, %o2
    d3bc:	7f ff f9 f1 	call  bb80 <add_vec>
    d3c0:	01 00 00 00 	nop 
    d3c4:	d1 1f bf a0 	ldd  [ %fp + -96 ], %f8
    d3c8:	d1 3f bf e8 	std  %f8, [ %fp + -24 ]
    d3cc:	10 80 00 84 	b  d5dc <quest+0xf8c>
    d3d0:	01 00 00 00 	nop 
    d3d4:	c2 0f bf ff 	ldub  [ %fp + -1 ], %g1
    d3d8:	82 08 60 ff 	and  %g1, 0xff, %g1
    d3dc:	80 a0 60 03 	cmp  %g1, 3
    d3e0:	12 80 00 3f 	bne  d4dc <quest+0xe8c>
    d3e4:	01 00 00 00 	nop 
    d3e8:	82 07 bd 48 	add  %fp, -696, %g1
    d3ec:	05 00 00 42 	sethi  %hi(0x10800), %g2
    d3f0:	84 10 a1 28 	or  %g2, 0x128, %g2	! 10928 <PAGE_TABLE_BASE+0x528>
    d3f4:	d5 18 80 00 	ldd  [ %g2 ], %f10
    d3f8:	05 00 00 42 	sethi  %hi(0x10800), %g2
    d3fc:	84 10 a1 20 	or  %g2, 0x120, %g2	! 10920 <PAGE_TABLE_BASE+0x520>
    d400:	d1 18 80 00 	ldd  [ %g2 ], %f8
    d404:	05 00 00 42 	sethi  %hi(0x10800), %g2
    d408:	84 10 a1 28 	or  %g2, 0x128, %g2	! 10928 <PAGE_TABLE_BASE+0x528>
    d40c:	c4 18 80 00 	ldd  [ %g2 ], %g2
    d410:	c4 3f bc e0 	std  %g2, [ %fp + -800 ]
    d414:	c8 07 bc e4 	ld  [ %fp + -796 ], %g4
    d418:	c8 23 a0 5c 	st  %g4, [ %sp + 0x5c ]
    d41c:	9a 10 00 02 	mov  %g2, %o5
    d420:	90 10 00 01 	mov  %g1, %o0
    d424:	d5 3f bc d0 	std  %f10, [ %fp + -816 ]
    d428:	c4 1f bc d0 	ldd  [ %fp + -816 ], %g2
    d42c:	92 10 00 02 	mov  %g2, %o1
    d430:	94 10 00 03 	mov  %g3, %o2
    d434:	d1 3f bc d0 	std  %f8, [ %fp + -816 ]
    d438:	c4 1f bc d0 	ldd  [ %fp + -816 ], %g2
    d43c:	96 10 00 02 	mov  %g2, %o3
    d440:	98 10 00 03 	mov  %g3, %o4
    d444:	7f ff f9 58 	call  b9a4 <Vec_construct>
    d448:	01 00 00 00 	nop 
    d44c:	84 07 bd 48 	add  %fp, -696, %g2
    d450:	82 07 be 38 	add  %fp, -456, %g1
    d454:	90 10 00 02 	mov  %g2, %o0
    d458:	92 10 00 01 	mov  %g1, %o1
    d45c:	7f ff f9 97 	call  bab8 <dot>
    d460:	01 00 00 00 	nop 
    d464:	91 a0 00 20 	fmovs  %f0, %f8
    d468:	93 a0 00 21 	fmovs  %f1, %f9
    d46c:	91 a0 00 a8 	fnegs  %f8, %f8
    d470:	d1 3f bf 98 	std  %f8, [ %fp + -104 ]
    d474:	86 07 be 38 	add  %fp, -456, %g3
    d478:	84 07 bd 48 	add  %fp, -696, %g2
    d47c:	82 07 be 38 	add  %fp, -456, %g1
    d480:	90 10 00 03 	mov  %g3, %o0
    d484:	92 10 00 02 	mov  %g2, %o1
    d488:	94 10 00 01 	mov  %g1, %o2
    d48c:	7f ff f9 5d 	call  ba00 <cross>
    d490:	01 00 00 00 	nop 
    d494:	82 07 bd 48 	add  %fp, -696, %g1
    d498:	90 10 00 01 	mov  %g1, %o0
    d49c:	d2 07 bf e8 	ld  [ %fp + -24 ], %o1
    d4a0:	d4 07 bf ec 	ld  [ %fp + -20 ], %o2
    d4a4:	7f ff f9 9e 	call  bb1c <scale_vec>
    d4a8:	01 00 00 00 	nop 
    d4ac:	86 07 be 38 	add  %fp, -456, %g3
    d4b0:	84 07 be 38 	add  %fp, -456, %g2
    d4b4:	82 07 bd 48 	add  %fp, -696, %g1
    d4b8:	90 10 00 03 	mov  %g3, %o0
    d4bc:	92 10 00 02 	mov  %g2, %o1
    d4c0:	94 10 00 01 	mov  %g1, %o2
    d4c4:	7f ff f9 af 	call  bb80 <add_vec>
    d4c8:	01 00 00 00 	nop 
    d4cc:	d1 1f bf 98 	ldd  [ %fp + -104 ], %f8
    d4d0:	d1 3f bf e8 	std  %f8, [ %fp + -24 ]
    d4d4:	10 80 00 42 	b  d5dc <quest+0xf8c>
    d4d8:	01 00 00 00 	nop 
    d4dc:	c2 0f bf ff 	ldub  [ %fp + -1 ], %g1
    d4e0:	82 08 60 ff 	and  %g1, 0xff, %g1
    d4e4:	80 a0 60 04 	cmp  %g1, 4
    d4e8:	12 80 00 3d 	bne  d5dc <quest+0xf8c>
    d4ec:	01 00 00 00 	nop 
    d4f0:	82 07 bd 30 	add  %fp, -720, %g1
    d4f4:	05 00 00 42 	sethi  %hi(0x10800), %g2
    d4f8:	84 10 a1 28 	or  %g2, 0x128, %g2	! 10928 <PAGE_TABLE_BASE+0x528>
    d4fc:	d5 18 80 00 	ldd  [ %g2 ], %f10
    d500:	05 00 00 42 	sethi  %hi(0x10800), %g2
    d504:	84 10 a1 28 	or  %g2, 0x128, %g2	! 10928 <PAGE_TABLE_BASE+0x528>
    d508:	d1 18 80 00 	ldd  [ %g2 ], %f8
    d50c:	05 00 00 42 	sethi  %hi(0x10800), %g2
    d510:	84 10 a1 20 	or  %g2, 0x120, %g2	! 10920 <PAGE_TABLE_BASE+0x520>
    d514:	c4 18 80 00 	ldd  [ %g2 ], %g2
    d518:	c4 3f bc e0 	std  %g2, [ %fp + -800 ]
    d51c:	c8 07 bc e4 	ld  [ %fp + -796 ], %g4
    d520:	c8 23 a0 5c 	st  %g4, [ %sp + 0x5c ]
    d524:	9a 10 00 02 	mov  %g2, %o5
    d528:	90 10 00 01 	mov  %g1, %o0
    d52c:	d5 3f bc d0 	std  %f10, [ %fp + -816 ]
    d530:	c4 1f bc d0 	ldd  [ %fp + -816 ], %g2
    d534:	92 10 00 02 	mov  %g2, %o1
    d538:	94 10 00 03 	mov  %g3, %o2
    d53c:	d1 3f bc d0 	std  %f8, [ %fp + -816 ]
    d540:	c4 1f bc d0 	ldd  [ %fp + -816 ], %g2
    d544:	96 10 00 02 	mov  %g2, %o3
    d548:	98 10 00 03 	mov  %g3, %o4
    d54c:	7f ff f9 16 	call  b9a4 <Vec_construct>
    d550:	01 00 00 00 	nop 
    d554:	84 07 bd 30 	add  %fp, -720, %g2
    d558:	82 07 be 38 	add  %fp, -456, %g1
    d55c:	90 10 00 02 	mov  %g2, %o0
    d560:	92 10 00 01 	mov  %g1, %o1
    d564:	7f ff f9 55 	call  bab8 <dot>
    d568:	01 00 00 00 	nop 
    d56c:	91 a0 00 20 	fmovs  %f0, %f8
    d570:	93 a0 00 21 	fmovs  %f1, %f9
    d574:	91 a0 00 a8 	fnegs  %f8, %f8
    d578:	d1 3f bf 90 	std  %f8, [ %fp + -112 ]
    d57c:	86 07 be 38 	add  %fp, -456, %g3
    d580:	84 07 bd 30 	add  %fp, -720, %g2
    d584:	82 07 be 38 	add  %fp, -456, %g1
    d588:	90 10 00 03 	mov  %g3, %o0
    d58c:	92 10 00 02 	mov  %g2, %o1
    d590:	94 10 00 01 	mov  %g1, %o2
    d594:	7f ff f9 1b 	call  ba00 <cross>
    d598:	01 00 00 00 	nop 
    d59c:	82 07 bd 30 	add  %fp, -720, %g1
    d5a0:	90 10 00 01 	mov  %g1, %o0
    d5a4:	d2 07 bf e8 	ld  [ %fp + -24 ], %o1
    d5a8:	d4 07 bf ec 	ld  [ %fp + -20 ], %o2
    d5ac:	7f ff f9 5c 	call  bb1c <scale_vec>
    d5b0:	01 00 00 00 	nop 
    d5b4:	86 07 be 38 	add  %fp, -456, %g3
    d5b8:	84 07 be 38 	add  %fp, -456, %g2
    d5bc:	82 07 bd 30 	add  %fp, -720, %g1
    d5c0:	90 10 00 03 	mov  %g3, %o0
    d5c4:	92 10 00 02 	mov  %g2, %o1
    d5c8:	94 10 00 01 	mov  %g1, %o2
    d5cc:	7f ff f9 6d 	call  bb80 <add_vec>
    d5d0:	01 00 00 00 	nop 
    d5d4:	d1 1f bf 90 	ldd  [ %fp + -112 ], %f8
    d5d8:	d1 3f bf e8 	std  %f8, [ %fp + -24 ]
    d5dc:	d5 1f be 38 	ldd  [ %fp + -456 ], %f10
    d5e0:	d1 1f be 38 	ldd  [ %fp + -456 ], %f8
    d5e4:	95 a2 89 48 	fmuld  %f10, %f8, %f10
    d5e8:	d9 1f be 40 	ldd  [ %fp + -448 ], %f12
    d5ec:	d1 1f be 40 	ldd  [ %fp + -448 ], %f8
    d5f0:	91 a3 09 48 	fmuld  %f12, %f8, %f8
    d5f4:	95 a2 88 48 	faddd  %f10, %f8, %f10
    d5f8:	d9 1f be 48 	ldd  [ %fp + -440 ], %f12
    d5fc:	d1 1f be 48 	ldd  [ %fp + -440 ], %f8
    d600:	91 a3 09 48 	fmuld  %f12, %f8, %f8
    d604:	95 a2 88 48 	faddd  %f10, %f8, %f10
    d608:	d9 1f bf e8 	ldd  [ %fp + -24 ], %f12
    d60c:	d1 1f bf e8 	ldd  [ %fp + -24 ], %f8
    d610:	91 a3 09 48 	fmuld  %f12, %f8, %f8
    d614:	91 a2 88 48 	faddd  %f10, %f8, %f8
    d618:	d1 3f bc d0 	std  %f8, [ %fp + -816 ]
    d61c:	d0 1f bc d0 	ldd  [ %fp + -816 ], %o0
    d620:	40 00 00 88 	call  d840 <__GI_sqrt>
    d624:	01 00 00 00 	nop 
    d628:	82 10 00 08 	mov  %o0, %g1
    d62c:	c2 27 bc dc 	st  %g1, [ %fp + -804 ]
    d630:	d5 07 bc dc 	ld  [ %fp + -804 ], %f10
    d634:	91 a0 19 0a 	fitod  %f10, %f8
    d638:	d1 3f bf 88 	std  %f8, [ %fp + -120 ]
    d63c:	d5 1f be 38 	ldd  [ %fp + -456 ], %f10
    d640:	d1 1f bf 88 	ldd  [ %fp + -120 ], %f8
    d644:	99 a2 89 c8 	fdivd  %f10, %f8, %f12
    d648:	d9 3f bc d0 	std  %f12, [ %fp + -816 ]
    d64c:	c4 1f bc d0 	ldd  [ %fp + -816 ], %g2
    d650:	c4 3f bc e0 	std  %g2, [ %fp + -800 ]
    d654:	c2 07 bc e4 	ld  [ %fp + -796 ], %g1
    d658:	c2 23 a0 5c 	st  %g1, [ %sp + 0x5c ]
    d65c:	9a 10 00 02 	mov  %g2, %o5
    d660:	03 00 00 42 	sethi  %hi(0x10800), %g1
    d664:	90 10 60 c8 	or  %g1, 0xc8, %o0	! 108c8 <PAGE_TABLE_BASE+0x4c8>
    d668:	03 00 00 42 	sethi  %hi(0x10800), %g1
    d66c:	92 10 60 d0 	or  %g1, 0xd0, %o1	! 108d0 <PAGE_TABLE_BASE+0x4d0>
    d670:	03 00 00 42 	sethi  %hi(0x10800), %g1
    d674:	94 10 61 38 	or  %g1, 0x138, %o2	! 10938 <__func__.1252>
    d678:	96 10 21 46 	mov  0x146, %o3
    d67c:	03 00 00 42 	sethi  %hi(0x10800), %g1
    d680:	98 10 60 d8 	or  %g1, 0xd8, %o4	! 108d8 <PAGE_TABLE_BASE+0x4d8>
    d684:	7f ff f2 0f 	call  9ec0 <__cortos_log_printf>
    d688:	01 00 00 00 	nop 
    d68c:	d5 1f be 40 	ldd  [ %fp + -448 ], %f10
    d690:	d1 1f bf 88 	ldd  [ %fp + -120 ], %f8
    d694:	99 a2 89 c8 	fdivd  %f10, %f8, %f12
    d698:	d9 3f bc d0 	std  %f12, [ %fp + -816 ]
    d69c:	c4 1f bc d0 	ldd  [ %fp + -816 ], %g2
    d6a0:	c4 3f bc e0 	std  %g2, [ %fp + -800 ]
    d6a4:	c2 07 bc e4 	ld  [ %fp + -796 ], %g1
    d6a8:	c2 23 a0 5c 	st  %g1, [ %sp + 0x5c ]
    d6ac:	9a 10 00 02 	mov  %g2, %o5
    d6b0:	03 00 00 42 	sethi  %hi(0x10800), %g1
    d6b4:	90 10 60 c8 	or  %g1, 0xc8, %o0	! 108c8 <PAGE_TABLE_BASE+0x4c8>
    d6b8:	03 00 00 42 	sethi  %hi(0x10800), %g1
    d6bc:	92 10 60 d0 	or  %g1, 0xd0, %o1	! 108d0 <PAGE_TABLE_BASE+0x4d0>
    d6c0:	03 00 00 42 	sethi  %hi(0x10800), %g1
    d6c4:	94 10 61 38 	or  %g1, 0x138, %o2	! 10938 <__func__.1252>
    d6c8:	96 10 21 47 	mov  0x147, %o3
    d6cc:	03 00 00 42 	sethi  %hi(0x10800), %g1
    d6d0:	98 10 60 e8 	or  %g1, 0xe8, %o4	! 108e8 <PAGE_TABLE_BASE+0x4e8>
    d6d4:	7f ff f1 fb 	call  9ec0 <__cortos_log_printf>
    d6d8:	01 00 00 00 	nop 
    d6dc:	d5 1f be 48 	ldd  [ %fp + -440 ], %f10
    d6e0:	d1 1f bf 88 	ldd  [ %fp + -120 ], %f8
    d6e4:	99 a2 89 c8 	fdivd  %f10, %f8, %f12
    d6e8:	d9 3f bc d0 	std  %f12, [ %fp + -816 ]
    d6ec:	c4 1f bc d0 	ldd  [ %fp + -816 ], %g2
    d6f0:	c4 3f bc e0 	std  %g2, [ %fp + -800 ]
    d6f4:	c2 07 bc e4 	ld  [ %fp + -796 ], %g1
    d6f8:	c2 23 a0 5c 	st  %g1, [ %sp + 0x5c ]
    d6fc:	9a 10 00 02 	mov  %g2, %o5
    d700:	03 00 00 42 	sethi  %hi(0x10800), %g1
    d704:	90 10 60 c8 	or  %g1, 0xc8, %o0	! 108c8 <PAGE_TABLE_BASE+0x4c8>
    d708:	03 00 00 42 	sethi  %hi(0x10800), %g1
    d70c:	92 10 60 d0 	or  %g1, 0xd0, %o1	! 108d0 <PAGE_TABLE_BASE+0x4d0>
    d710:	03 00 00 42 	sethi  %hi(0x10800), %g1
    d714:	94 10 61 38 	or  %g1, 0x138, %o2	! 10938 <__func__.1252>
    d718:	96 10 21 48 	mov  0x148, %o3
    d71c:	03 00 00 42 	sethi  %hi(0x10800), %g1
    d720:	98 10 60 f8 	or  %g1, 0xf8, %o4	! 108f8 <PAGE_TABLE_BASE+0x4f8>
    d724:	7f ff f1 e7 	call  9ec0 <__cortos_log_printf>
    d728:	01 00 00 00 	nop 
    d72c:	d5 1f bf e8 	ldd  [ %fp + -24 ], %f10
    d730:	d1 1f bf 88 	ldd  [ %fp + -120 ], %f8
    d734:	99 a2 89 c8 	fdivd  %f10, %f8, %f12
    d738:	d9 3f bc d0 	std  %f12, [ %fp + -816 ]
    d73c:	c4 1f bc d0 	ldd  [ %fp + -816 ], %g2
    d740:	c4 3f bc e0 	std  %g2, [ %fp + -800 ]
    d744:	c2 07 bc e4 	ld  [ %fp + -796 ], %g1
    d748:	c2 23 a0 5c 	st  %g1, [ %sp + 0x5c ]
    d74c:	9a 10 00 02 	mov  %g2, %o5
    d750:	03 00 00 42 	sethi  %hi(0x10800), %g1
    d754:	90 10 60 c8 	or  %g1, 0xc8, %o0	! 108c8 <PAGE_TABLE_BASE+0x4c8>
    d758:	03 00 00 42 	sethi  %hi(0x10800), %g1
    d75c:	92 10 60 d0 	or  %g1, 0xd0, %o1	! 108d0 <PAGE_TABLE_BASE+0x4d0>
    d760:	03 00 00 42 	sethi  %hi(0x10800), %g1
    d764:	94 10 61 38 	or  %g1, 0x138, %o2	! 10938 <__func__.1252>
    d768:	96 10 21 49 	mov  0x149, %o3
    d76c:	03 00 00 42 	sethi  %hi(0x10800), %g1
    d770:	98 10 61 08 	or  %g1, 0x108, %o4	! 10908 <PAGE_TABLE_BASE+0x508>
    d774:	7f ff f1 d3 	call  9ec0 <__cortos_log_printf>
    d778:	01 00 00 00 	nop 
    d77c:	9c 10 00 14 	mov  %l4, %sp
    d780:	81 e8 00 00 	restore 
    d784:	81 c3 e0 08 	retl 
    d788:	01 00 00 00 	nop 

0000d78c <f_bar.1209>:
    d78c:	9d e3 bf 90 	save  %sp, -112, %sp
    d790:	f0 3f bf f0 	std  %i0, [ %fp + -16 ]
    d794:	82 10 00 02 	mov  %g2, %g1
    d798:	d1 1f bf f0 	ldd  [ %fp + -16 ], %f8
    d79c:	95 a2 08 48 	faddd  %f8, %f8, %f10
    d7a0:	d1 1f bf f0 	ldd  [ %fp + -16 ], %f8
    d7a4:	99 a2 08 48 	faddd  %f8, %f8, %f12
    d7a8:	d1 1f bf f0 	ldd  [ %fp + -16 ], %f8
    d7ac:	99 a3 09 48 	fmuld  %f12, %f8, %f12
    d7b0:	d1 18 60 28 	ldd  [ %g1 + 0x28 ], %f8
    d7b4:	9d a2 08 48 	faddd  %f8, %f8, %f14
    d7b8:	d1 18 60 28 	ldd  [ %g1 + 0x28 ], %f8
    d7bc:	91 a3 89 48 	fmuld  %f14, %f8, %f8
    d7c0:	99 a3 08 c8 	fsubd  %f12, %f8, %f12
    d7c4:	d1 18 60 20 	ldd  [ %g1 + 0x20 ], %f8
    d7c8:	99 a3 08 48 	faddd  %f12, %f8, %f12
    d7cc:	d1 18 60 18 	ldd  [ %g1 + 0x18 ], %f8
    d7d0:	91 a3 08 c8 	fsubd  %f12, %f8, %f8
    d7d4:	91 a2 89 48 	fmuld  %f10, %f8, %f8
    d7d8:	d1 3f bf f8 	std  %f8, [ %fp + -8 ]
    d7dc:	d1 18 60 10 	ldd  [ %g1 + 0x10 ], %f8
    d7e0:	d5 1f bf f8 	ldd  [ %fp + -8 ], %f10
    d7e4:	95 a2 88 c8 	fsubd  %f10, %f8, %f10
    d7e8:	d1 18 60 08 	ldd  [ %g1 + 8 ], %f8
    d7ec:	91 a2 88 c8 	fsubd  %f10, %f8, %f8
    d7f0:	81 a0 00 28 	fmovs  %f8, %f0
    d7f4:	83 a0 00 29 	fmovs  %f9, %f1
    d7f8:	81 e8 00 00 	restore 
    d7fc:	81 c3 e0 08 	retl 
    d800:	01 00 00 00 	nop 

0000d804 <main>:
    d804:	9d e3 bf 98 	save  %sp, -104, %sp
    d808:	82 10 20 03 	mov  3, %g1
    d80c:	c2 27 bf fc 	st  %g1, [ %fp + -4 ]
    d810:	82 10 20 0a 	mov  0xa, %g1
    d814:	c2 27 bf f8 	st  %g1, [ %fp + -8 ]
    d818:	03 00 00 42 	sethi  %hi(0x10800), %g1
    d81c:	90 10 61 48 	or  %g1, 0x148, %o0	! 10948 <data>
    d820:	7f ff fb 8c 	call  c650 <quest>
    d824:	01 00 00 00 	nop 
    d828:	90 10 20 00 	clr  %o0	! 0 <_start>
    d82c:	7f ff ec 63 	call  89b8 <cortos_exit>
    d830:	01 00 00 00 	nop 
    d834:	81 e8 00 00 	restore 
    d838:	81 c3 e0 08 	retl 
    d83c:	01 00 00 00 	nop 

0000d840 <__GI_sqrt>:
    d840:	9d e3 bf 98 	save  %sp, -104, %sp
    d844:	f0 3f bf f8 	std  %i0, [ %fp + -8 ]
    d848:	07 1f fc 00 	sethi  %hi(0x7ff00000), %g3
    d84c:	c1 1f bf f8 	ldd  [ %fp + -8 ], %f0
    d850:	ba 0e 00 03 	and  %i0, %g3, %i5
    d854:	82 10 00 18 	mov  %i0, %g1
    d858:	80 a7 40 03 	cmp  %i5, %g3
    d85c:	12 80 00 06 	bne  d874 <__GI_sqrt+0x34>
    d860:	84 10 00 19 	mov  %i1, %g2
    d864:	91 a0 09 40 	fmuld  %f0, %f0, %f8
    d868:	81 a0 08 48 	faddd  %f0, %f8, %f0
    d86c:	81 c7 e0 08 	ret 
    d870:	81 e8 00 00 	restore 
    d874:	80 a6 20 00 	cmp  %i0, 0
    d878:	14 80 00 0d 	bg  d8ac <__GI_sqrt+0x6c>
    d87c:	89 38 60 14 	sra  %g1, 0x14, %g4
    d880:	07 20 00 00 	sethi  %hi(0x80000000), %g3
    d884:	86 2e 00 03 	andn  %i0, %g3, %g3
    d888:	80 90 c0 19 	orcc  %g3, %i1, %g0
    d88c:	02 bf ff f8 	be  d86c <__GI_sqrt+0x2c>
    d890:	80 a6 20 00 	cmp  %i0, 0
    d894:	22 80 00 07 	be,a   d8b0 <__GI_sqrt+0x70>
    d898:	80 a1 20 00 	cmp  %g4, 0
    d89c:	81 a0 08 c0 	fsubd  %f0, %f0, %f0
    d8a0:	81 a0 09 c0 	fdivd  %f0, %f0, %f0
    d8a4:	81 c7 e0 08 	ret 
    d8a8:	81 e8 00 00 	restore 
    d8ac:	80 a1 20 00 	cmp  %g4, 0
    d8b0:	32 80 00 17 	bne,a   d90c <__GI_sqrt+0xcc>
    d8b4:	07 3f fc 00 	sethi  %hi(0xfff00000), %g3
    d8b8:	10 80 00 05 	b  d8cc <__GI_sqrt+0x8c>
    d8bc:	80 a0 60 00 	cmp  %g1, 0
    d8c0:	88 01 3f eb 	add  %g4, -21, %g4
    d8c4:	85 28 a0 15 	sll  %g2, 0x15, %g2
    d8c8:	80 a0 60 00 	cmp  %g1, 0
    d8cc:	22 bf ff fd 	be,a   d8c0 <__GI_sqrt+0x80>
    d8d0:	83 30 a0 0b 	srl  %g2, 0xb, %g1
    d8d4:	86 10 20 00 	clr  %g3
    d8d8:	10 80 00 03 	b  d8e4 <__GI_sqrt+0xa4>
    d8dc:	3b 00 04 00 	sethi  %hi(0x100000), %i5
    d8e0:	86 00 e0 01 	inc  %g3
    d8e4:	80 88 40 1d 	btst  %g1, %i5
    d8e8:	22 bf ff fe 	be,a   d8e0 <__GI_sqrt+0xa0>
    d8ec:	82 00 40 01 	add  %g1, %g1, %g1
    d8f0:	88 21 00 03 	sub  %g4, %g3, %g4
    d8f4:	ba 20 00 03 	neg  %g3, %i5
    d8f8:	88 01 20 01 	inc  %g4
    d8fc:	bb 30 80 1d 	srl  %g2, %i5, %i5
    d900:	85 28 80 03 	sll  %g2, %g3, %g2
    d904:	82 17 40 01 	or  %i5, %g1, %g1
    d908:	07 3f fc 00 	sethi  %hi(0xfff00000), %g3
    d90c:	88 01 3c 01 	add  %g4, -1023, %g4
    d910:	82 28 40 03 	andn  %g1, %g3, %g1
    d914:	80 89 20 01 	btst  1, %g4
    d918:	07 00 04 00 	sethi  %hi(0x100000), %g3
    d91c:	02 80 00 06 	be  d934 <__GI_sqrt+0xf4>
    d920:	82 10 40 03 	or  %g1, %g3, %g1
    d924:	87 30 a0 1f 	srl  %g2, 0x1f, %g3
    d928:	82 00 40 01 	add  %g1, %g1, %g1
    d92c:	84 00 80 02 	add  %g2, %g2, %g2
    d930:	82 00 40 03 	add  %g1, %g3, %g1
    d934:	87 30 a0 1f 	srl  %g2, 0x1f, %g3
    d938:	9f 39 20 01 	sra  %g4, 1, %o7
    d93c:	82 00 40 01 	add  %g1, %g1, %g1
    d940:	84 00 80 02 	add  %g2, %g2, %g2
    d944:	82 00 40 03 	add  %g1, %g3, %g1
    d948:	b8 10 20 00 	clr  %i4
    d94c:	07 00 08 00 	sethi  %hi(0x200000), %g3
    d950:	88 10 20 00 	clr  %g4
    d954:	ba 01 00 03 	add  %g4, %g3, %i5
    d958:	80 a7 40 01 	cmp  %i5, %g1
    d95c:	34 80 00 06 	bg,a   d974 <__GI_sqrt+0x134>
    d960:	bb 30 a0 1f 	srl  %g2, 0x1f, %i5
    d964:	88 07 40 03 	add  %i5, %g3, %g4
    d968:	82 20 40 1d 	sub  %g1, %i5, %g1
    d96c:	b8 07 00 03 	add  %i4, %g3, %i4
    d970:	bb 30 a0 1f 	srl  %g2, 0x1f, %i5
    d974:	82 00 40 01 	add  %g1, %g1, %g1
    d978:	87 30 e0 01 	srl  %g3, 1, %g3
    d97c:	82 00 40 1d 	add  %g1, %i5, %g1
    d980:	80 a0 e0 00 	cmp  %g3, 0
    d984:	12 bf ff f4 	bne  d954 <__GI_sqrt+0x114>
    d988:	84 00 80 02 	add  %g2, %g2, %g2
    d98c:	3b 20 00 00 	sethi  %hi(0x80000000), %i5
    d990:	b4 10 20 00 	clr  %i2
    d994:	b2 10 00 1d 	mov  %i5, %i1
    d998:	80 a1 00 01 	cmp  %g4, %g1
    d99c:	06 80 00 08 	bl  d9bc <__GI_sqrt+0x17c>
    d9a0:	b6 07 40 1a 	add  %i5, %i2, %i3
    d9a4:	80 a0 80 1b 	cmp  %g2, %i3
    d9a8:	2a 80 00 14 	bcs,a   d9f8 <__GI_sqrt+0x1b8>
    d9ac:	b7 30 a0 1f 	srl  %g2, 0x1f, %i3
    d9b0:	80 a1 00 01 	cmp  %g4, %g1
    d9b4:	32 80 00 11 	bne,a   d9f8 <__GI_sqrt+0x1b8>
    d9b8:	b7 30 a0 1f 	srl  %g2, 0x1f, %i3
    d9bc:	9a 0e c0 19 	and  %i3, %i1, %o5
    d9c0:	b4 06 c0 1d 	add  %i3, %i5, %i2
    d9c4:	80 a3 40 19 	cmp  %o5, %i1
    d9c8:	12 80 00 05 	bne  d9dc <__GI_sqrt+0x19c>
    d9cc:	b0 10 00 04 	mov  %g4, %i0
    d9d0:	b0 0e 80 19 	and  %i2, %i1, %i0
    d9d4:	80 a0 00 18 	cmp  %g0, %i0
    d9d8:	b0 61 3f ff 	subx  %g4, -1, %i0
    d9dc:	82 20 40 04 	sub  %g1, %g4, %g1
    d9e0:	80 a0 80 1b 	cmp  %g2, %i3
    d9e4:	86 00 c0 1d 	add  %g3, %i5, %g3
    d9e8:	82 60 60 00 	subx  %g1, 0, %g1
    d9ec:	84 20 80 1b 	sub  %g2, %i3, %g2
    d9f0:	88 10 00 18 	mov  %i0, %g4
    d9f4:	b7 30 a0 1f 	srl  %g2, 0x1f, %i3
    d9f8:	82 00 40 01 	add  %g1, %g1, %g1
    d9fc:	bb 37 60 01 	srl  %i5, 1, %i5
    da00:	82 00 40 1b 	add  %g1, %i3, %g1
    da04:	80 a7 60 00 	cmp  %i5, 0
    da08:	12 bf ff e4 	bne  d998 <__GI_sqrt+0x158>
    da0c:	84 00 80 02 	add  %g2, %g2, %g2
    da10:	80 90 40 02 	orcc  %g1, %g2, %g0
    da14:	22 80 00 0a 	be,a   da3c <__GI_sqrt+0x1fc>
    da18:	03 0f f8 00 	sethi  %hi(0x3fe00000), %g1
    da1c:	80 a0 ff ff 	cmp  %g3, -1
    da20:	32 80 00 05 	bne,a   da34 <__GI_sqrt+0x1f4>
    da24:	82 08 e0 01 	and  %g3, 1, %g1
    da28:	b8 07 20 01 	inc  %i4
    da2c:	10 80 00 03 	b  da38 <__GI_sqrt+0x1f8>
    da30:	86 10 20 00 	clr  %g3
    da34:	86 00 c0 01 	add  %g3, %g1, %g3
    da38:	03 0f f8 00 	sethi  %hi(0x3fe00000), %g1
    da3c:	bb 3f 20 01 	sra  %i4, 1, %i5
    da40:	80 8f 20 01 	btst  1, %i4
    da44:	ba 07 40 01 	add  %i5, %g1, %i5
    da48:	02 80 00 04 	be  da58 <__GI_sqrt+0x218>
    da4c:	83 30 e0 01 	srl  %g3, 1, %g1
    da50:	05 20 00 00 	sethi  %hi(0x80000000), %g2
    da54:	82 10 40 02 	or  %g1, %g2, %g1
    da58:	89 2b e0 14 	sll  %o7, 0x14, %g4
    da5c:	86 10 00 01 	mov  %g1, %g3
    da60:	84 07 40 04 	add  %i5, %g4, %g2
    da64:	c4 3f bf f8 	std  %g2, [ %fp + -8 ]
    da68:	c1 1f bf f8 	ldd  [ %fp + -8 ], %f0
    da6c:	81 c7 e0 08 	ret 
    da70:	81 e8 00 00 	restore 
	...

0000e000 <window_overflow_trap_handler>:
    e000:	a7 50 00 00 	rd  %wim, %l3
    e004:	a9 2c e0 07 	sll  %l3, 7, %l4
    e008:	a7 34 e0 01 	srl  %l3, 1, %l3
    e00c:	a6 14 c0 14 	or  %l3, %l4, %l3
    e010:	a6 0c e0 ff 	and  %l3, 0xff, %l3
    e014:	81 90 00 00 	mov  %g0, %wim
    e018:	01 00 00 00 	nop 
    e01c:	01 00 00 00 	nop 
    e020:	01 00 00 00 	nop 
    e024:	81 e0 00 00 	save 
    e028:	e0 3b a0 00 	std  %l0, [ %sp ]
    e02c:	e4 3b a0 08 	std  %l2, [ %sp + 8 ]
    e030:	e8 3b a0 10 	std  %l4, [ %sp + 0x10 ]
    e034:	ec 3b a0 18 	std  %l6, [ %sp + 0x18 ]
    e038:	f0 3b a0 20 	std  %i0, [ %sp + 0x20 ]
    e03c:	f4 3b a0 28 	std  %i2, [ %sp + 0x28 ]
    e040:	f8 3b a0 30 	std  %i4, [ %sp + 0x30 ]
    e044:	fc 3b a0 38 	std  %fp, [ %sp + 0x38 ]
    e048:	81 e8 00 00 	restore 
    e04c:	81 90 00 13 	mov  %l3, %wim
    e050:	01 00 00 00 	nop 
    e054:	01 00 00 00 	nop 
    e058:	01 00 00 00 	nop 
    e05c:	81 c4 40 00 	jmp  %l1
    e060:	81 cc 80 00 	rett  %l2

0000e064 <window_underflow_trap_handler>:
    e064:	a7 50 00 00 	rd  %wim, %l3
    e068:	a9 34 e0 07 	srl  %l3, 7, %l4
    e06c:	a7 2c e0 01 	sll  %l3, 1, %l3
    e070:	a6 14 c0 14 	or  %l3, %l4, %l3
    e074:	a6 0c e0 ff 	and  %l3, 0xff, %l3
    e078:	81 90 00 00 	mov  %g0, %wim
    e07c:	01 00 00 00 	nop 
    e080:	01 00 00 00 	nop 
    e084:	01 00 00 00 	nop 
    e088:	81 e8 00 00 	restore 
    e08c:	81 e8 00 00 	restore 
    e090:	e0 1b a0 00 	ldd  [ %sp ], %l0
    e094:	e4 1b a0 08 	ldd  [ %sp + 8 ], %l2
    e098:	e8 1b a0 10 	ldd  [ %sp + 0x10 ], %l4
    e09c:	ec 1b a0 18 	ldd  [ %sp + 0x18 ], %l6
    e0a0:	f0 1b a0 20 	ldd  [ %sp + 0x20 ], %i0
    e0a4:	f4 1b a0 28 	ldd  [ %sp + 0x28 ], %i2
    e0a8:	f8 1b a0 30 	ldd  [ %sp + 0x30 ], %i4
    e0ac:	fc 1b a0 38 	ldd  [ %sp + 0x38 ], %fp
    e0b0:	81 e0 00 00 	save 
    e0b4:	81 e0 00 00 	save 
    e0b8:	81 90 00 13 	mov  %l3, %wim
    e0bc:	01 00 00 00 	nop 
    e0c0:	01 00 00 00 	nop 
    e0c4:	01 00 00 00 	nop 
    e0c8:	81 c4 40 00 	jmp  %l1
    e0cc:	81 cc 80 00 	rett  %l2
    e0d0:	01 00 00 00 	nop 
    e0d4:	01 00 00 00 	nop 
    e0d8:	01 00 00 00 	nop 
    e0dc:	01 00 00 00 	nop 
    e0e0:	01 00 00 00 	nop 
    e0e4:	01 00 00 00 	nop 
    e0e8:	01 00 00 00 	nop 
    e0ec:	01 00 00 00 	nop 
    e0f0:	01 00 00 00 	nop 
    e0f4:	01 00 00 00 	nop 
    e0f8:	01 00 00 00 	nop 
    e0fc:	01 00 00 00 	nop 
    e100:	01 00 00 00 	nop 
    e104:	01 00 00 00 	nop 
    e108:	01 00 00 00 	nop 
    e10c:	01 00 00 00 	nop 
    e110:	01 00 00 00 	nop 
    e114:	01 00 00 00 	nop 
    e118:	01 00 00 00 	nop 
    e11c:	01 00 00 00 	nop 
    e120:	01 00 00 00 	nop 
    e124:	01 00 00 00 	nop 
    e128:	01 00 00 00 	nop 
    e12c:	01 00 00 00 	nop 
    e130:	01 00 00 00 	nop 
    e134:	01 00 00 00 	nop 
    e138:	01 00 00 00 	nop 
    e13c:	01 00 00 00 	nop 
    e140:	01 00 00 00 	nop 
    e144:	01 00 00 00 	nop 
    e148:	01 00 00 00 	nop 
    e14c:	01 00 00 00 	nop 
    e150:	01 00 00 00 	nop 
    e154:	01 00 00 00 	nop 
    e158:	01 00 00 00 	nop 
    e15c:	01 00 00 00 	nop 
    e160:	01 00 00 00 	nop 
    e164:	01 00 00 00 	nop 
    e168:	01 00 00 00 	nop 
    e16c:	01 00 00 00 	nop 
    e170:	01 00 00 00 	nop 
    e174:	01 00 00 00 	nop 
    e178:	01 00 00 00 	nop 
    e17c:	01 00 00 00 	nop 
    e180:	01 00 00 00 	nop 
    e184:	01 00 00 00 	nop 
    e188:	01 00 00 00 	nop 
    e18c:	01 00 00 00 	nop 
    e190:	01 00 00 00 	nop 
    e194:	01 00 00 00 	nop 
    e198:	01 00 00 00 	nop 
    e19c:	01 00 00 00 	nop 
    e1a0:	01 00 00 00 	nop 
    e1a4:	01 00 00 00 	nop 
    e1a8:	01 00 00 00 	nop 
    e1ac:	01 00 00 00 	nop 
    e1b0:	01 00 00 00 	nop 
    e1b4:	01 00 00 00 	nop 
    e1b8:	01 00 00 00 	nop 
    e1bc:	01 00 00 00 	nop 
    e1c0:	01 00 00 00 	nop 
    e1c4:	01 00 00 00 	nop 
    e1c8:	01 00 00 00 	nop 
    e1cc:	01 00 00 00 	nop 
    e1d0:	01 00 00 00 	nop 
    e1d4:	01 00 00 00 	nop 
    e1d8:	01 00 00 00 	nop 
    e1dc:	01 00 00 00 	nop 
    e1e0:	01 00 00 00 	nop 
    e1e4:	01 00 00 00 	nop 
    e1e8:	01 00 00 00 	nop 
    e1ec:	01 00 00 00 	nop 
    e1f0:	01 00 00 00 	nop 
    e1f4:	01 00 00 00 	nop 
    e1f8:	01 00 00 00 	nop 
    e1fc:	01 00 00 00 	nop 
    e200:	01 00 00 00 	nop 
    e204:	01 00 00 00 	nop 
    e208:	01 00 00 00 	nop 
    e20c:	01 00 00 00 	nop 
    e210:	01 00 00 00 	nop 
    e214:	01 00 00 00 	nop 
    e218:	01 00 00 00 	nop 
    e21c:	01 00 00 00 	nop 
    e220:	01 00 00 00 	nop 
    e224:	01 00 00 00 	nop 
    e228:	01 00 00 00 	nop 
    e22c:	01 00 00 00 	nop 
    e230:	01 00 00 00 	nop 
    e234:	01 00 00 00 	nop 
    e238:	01 00 00 00 	nop 
    e23c:	01 00 00 00 	nop 
    e240:	01 00 00 00 	nop 
    e244:	01 00 00 00 	nop 
    e248:	01 00 00 00 	nop 
    e24c:	01 00 00 00 	nop 
    e250:	01 00 00 00 	nop 
    e254:	01 00 00 00 	nop 
    e258:	01 00 00 00 	nop 
    e25c:	01 00 00 00 	nop 
    e260:	01 00 00 00 	nop 
    e264:	01 00 00 00 	nop 
    e268:	01 00 00 00 	nop 
    e26c:	01 00 00 00 	nop 
    e270:	01 00 00 00 	nop 
    e274:	01 00 00 00 	nop 
    e278:	01 00 00 00 	nop 
    e27c:	01 00 00 00 	nop 
    e280:	01 00 00 00 	nop 
    e284:	01 00 00 00 	nop 
    e288:	01 00 00 00 	nop 
    e28c:	01 00 00 00 	nop 
    e290:	01 00 00 00 	nop 
    e294:	01 00 00 00 	nop 
    e298:	01 00 00 00 	nop 
    e29c:	01 00 00 00 	nop 
    e2a0:	01 00 00 00 	nop 
    e2a4:	01 00 00 00 	nop 
    e2a8:	01 00 00 00 	nop 
    e2ac:	01 00 00 00 	nop 
    e2b0:	01 00 00 00 	nop 
    e2b4:	01 00 00 00 	nop 
    e2b8:	01 00 00 00 	nop 
    e2bc:	01 00 00 00 	nop 
    e2c0:	01 00 00 00 	nop 
    e2c4:	01 00 00 00 	nop 
    e2c8:	01 00 00 00 	nop 
    e2cc:	01 00 00 00 	nop 
    e2d0:	01 00 00 00 	nop 
    e2d4:	01 00 00 00 	nop 
    e2d8:	01 00 00 00 	nop 
    e2dc:	01 00 00 00 	nop 
    e2e0:	01 00 00 00 	nop 
    e2e4:	01 00 00 00 	nop 
    e2e8:	01 00 00 00 	nop 
    e2ec:	01 00 00 00 	nop 
    e2f0:	01 00 00 00 	nop 
    e2f4:	01 00 00 00 	nop 
    e2f8:	01 00 00 00 	nop 
    e2fc:	01 00 00 00 	nop 
    e300:	01 00 00 00 	nop 
    e304:	01 00 00 00 	nop 
    e308:	01 00 00 00 	nop 
    e30c:	01 00 00 00 	nop 
    e310:	01 00 00 00 	nop 
    e314:	01 00 00 00 	nop 
    e318:	01 00 00 00 	nop 
    e31c:	01 00 00 00 	nop 
    e320:	01 00 00 00 	nop 
    e324:	01 00 00 00 	nop 
    e328:	01 00 00 00 	nop 
    e32c:	01 00 00 00 	nop 
    e330:	01 00 00 00 	nop 
    e334:	01 00 00 00 	nop 
    e338:	01 00 00 00 	nop 
    e33c:	01 00 00 00 	nop 
    e340:	01 00 00 00 	nop 
    e344:	01 00 00 00 	nop 
    e348:	01 00 00 00 	nop 
    e34c:	01 00 00 00 	nop 
    e350:	01 00 00 00 	nop 
    e354:	01 00 00 00 	nop 
    e358:	01 00 00 00 	nop 
    e35c:	01 00 00 00 	nop 
    e360:	01 00 00 00 	nop 
    e364:	01 00 00 00 	nop 
    e368:	01 00 00 00 	nop 
    e36c:	01 00 00 00 	nop 
    e370:	01 00 00 00 	nop 
    e374:	01 00 00 00 	nop 
    e378:	01 00 00 00 	nop 
    e37c:	01 00 00 00 	nop 
    e380:	01 00 00 00 	nop 
    e384:	01 00 00 00 	nop 
    e388:	01 00 00 00 	nop 
    e38c:	01 00 00 00 	nop 
    e390:	01 00 00 00 	nop 
    e394:	01 00 00 00 	nop 
    e398:	01 00 00 00 	nop 
    e39c:	01 00 00 00 	nop 
    e3a0:	01 00 00 00 	nop 
    e3a4:	01 00 00 00 	nop 
    e3a8:	01 00 00 00 	nop 
    e3ac:	01 00 00 00 	nop 
    e3b0:	01 00 00 00 	nop 
    e3b4:	01 00 00 00 	nop 
    e3b8:	01 00 00 00 	nop 
    e3bc:	01 00 00 00 	nop 
    e3c0:	01 00 00 00 	nop 
    e3c4:	01 00 00 00 	nop 
    e3c8:	01 00 00 00 	nop 
    e3cc:	01 00 00 00 	nop 
    e3d0:	01 00 00 00 	nop 
    e3d4:	01 00 00 00 	nop 
    e3d8:	01 00 00 00 	nop 
    e3dc:	01 00 00 00 	nop 
    e3e0:	01 00 00 00 	nop 
    e3e4:	01 00 00 00 	nop 
    e3e8:	01 00 00 00 	nop 
    e3ec:	01 00 00 00 	nop 
    e3f0:	01 00 00 00 	nop 
    e3f4:	01 00 00 00 	nop 
    e3f8:	01 00 00 00 	nop 
    e3fc:	01 00 00 00 	nop 
    e400:	01 00 00 00 	nop 
    e404:	01 00 00 00 	nop 
    e408:	01 00 00 00 	nop 
    e40c:	01 00 00 00 	nop 
    e410:	01 00 00 00 	nop 
    e414:	01 00 00 00 	nop 
    e418:	01 00 00 00 	nop 
    e41c:	01 00 00 00 	nop 
    e420:	01 00 00 00 	nop 
    e424:	01 00 00 00 	nop 
    e428:	01 00 00 00 	nop 
    e42c:	01 00 00 00 	nop 
    e430:	01 00 00 00 	nop 
    e434:	01 00 00 00 	nop 
    e438:	01 00 00 00 	nop 
    e43c:	01 00 00 00 	nop 
    e440:	01 00 00 00 	nop 
    e444:	01 00 00 00 	nop 
    e448:	01 00 00 00 	nop 
    e44c:	01 00 00 00 	nop 
    e450:	01 00 00 00 	nop 
    e454:	01 00 00 00 	nop 
    e458:	01 00 00 00 	nop 
    e45c:	01 00 00 00 	nop 
    e460:	01 00 00 00 	nop 
    e464:	01 00 00 00 	nop 
    e468:	01 00 00 00 	nop 
    e46c:	01 00 00 00 	nop 
    e470:	01 00 00 00 	nop 
    e474:	01 00 00 00 	nop 
    e478:	01 00 00 00 	nop 
    e47c:	01 00 00 00 	nop 
    e480:	01 00 00 00 	nop 
    e484:	01 00 00 00 	nop 
    e488:	01 00 00 00 	nop 
    e48c:	01 00 00 00 	nop 
    e490:	01 00 00 00 	nop 
    e494:	01 00 00 00 	nop 
    e498:	01 00 00 00 	nop 
    e49c:	01 00 00 00 	nop 
    e4a0:	01 00 00 00 	nop 
    e4a4:	01 00 00 00 	nop 
    e4a8:	01 00 00 00 	nop 
    e4ac:	01 00 00 00 	nop 
    e4b0:	01 00 00 00 	nop 
    e4b4:	01 00 00 00 	nop 
    e4b8:	01 00 00 00 	nop 
    e4bc:	01 00 00 00 	nop 
    e4c0:	01 00 00 00 	nop 
    e4c4:	01 00 00 00 	nop 
    e4c8:	01 00 00 00 	nop 
    e4cc:	01 00 00 00 	nop 
    e4d0:	01 00 00 00 	nop 
    e4d4:	01 00 00 00 	nop 
    e4d8:	01 00 00 00 	nop 
    e4dc:	01 00 00 00 	nop 
    e4e0:	01 00 00 00 	nop 
    e4e4:	01 00 00 00 	nop 
    e4e8:	01 00 00 00 	nop 
    e4ec:	01 00 00 00 	nop 
    e4f0:	01 00 00 00 	nop 
    e4f4:	01 00 00 00 	nop 
    e4f8:	01 00 00 00 	nop 
    e4fc:	01 00 00 00 	nop 
    e500:	01 00 00 00 	nop 
    e504:	01 00 00 00 	nop 
    e508:	01 00 00 00 	nop 
    e50c:	01 00 00 00 	nop 
    e510:	01 00 00 00 	nop 
    e514:	01 00 00 00 	nop 
    e518:	01 00 00 00 	nop 
    e51c:	01 00 00 00 	nop 
    e520:	01 00 00 00 	nop 
    e524:	01 00 00 00 	nop 
    e528:	01 00 00 00 	nop 
    e52c:	01 00 00 00 	nop 
    e530:	01 00 00 00 	nop 
    e534:	01 00 00 00 	nop 
    e538:	01 00 00 00 	nop 
    e53c:	01 00 00 00 	nop 
    e540:	01 00 00 00 	nop 
    e544:	01 00 00 00 	nop 
    e548:	01 00 00 00 	nop 
    e54c:	01 00 00 00 	nop 
    e550:	01 00 00 00 	nop 
    e554:	01 00 00 00 	nop 
    e558:	01 00 00 00 	nop 
    e55c:	01 00 00 00 	nop 
    e560:	01 00 00 00 	nop 
    e564:	01 00 00 00 	nop 
    e568:	01 00 00 00 	nop 
    e56c:	01 00 00 00 	nop 
    e570:	01 00 00 00 	nop 
    e574:	01 00 00 00 	nop 
    e578:	01 00 00 00 	nop 
    e57c:	01 00 00 00 	nop 
    e580:	01 00 00 00 	nop 
    e584:	01 00 00 00 	nop 
    e588:	01 00 00 00 	nop 
    e58c:	01 00 00 00 	nop 
    e590:	01 00 00 00 	nop 
    e594:	01 00 00 00 	nop 
    e598:	01 00 00 00 	nop 
    e59c:	01 00 00 00 	nop 
    e5a0:	01 00 00 00 	nop 
    e5a4:	01 00 00 00 	nop 
    e5a8:	01 00 00 00 	nop 
    e5ac:	01 00 00 00 	nop 
    e5b0:	01 00 00 00 	nop 
    e5b4:	01 00 00 00 	nop 
    e5b8:	01 00 00 00 	nop 
    e5bc:	01 00 00 00 	nop 
    e5c0:	01 00 00 00 	nop 
    e5c4:	01 00 00 00 	nop 
    e5c8:	01 00 00 00 	nop 
    e5cc:	01 00 00 00 	nop 
    e5d0:	01 00 00 00 	nop 
    e5d4:	01 00 00 00 	nop 
    e5d8:	01 00 00 00 	nop 
    e5dc:	01 00 00 00 	nop 
    e5e0:	01 00 00 00 	nop 
    e5e4:	01 00 00 00 	nop 
    e5e8:	01 00 00 00 	nop 
    e5ec:	01 00 00 00 	nop 
    e5f0:	01 00 00 00 	nop 
    e5f4:	01 00 00 00 	nop 
    e5f8:	01 00 00 00 	nop 
    e5fc:	01 00 00 00 	nop 
    e600:	01 00 00 00 	nop 
    e604:	01 00 00 00 	nop 
    e608:	01 00 00 00 	nop 
    e60c:	01 00 00 00 	nop 
    e610:	01 00 00 00 	nop 
    e614:	01 00 00 00 	nop 
    e618:	01 00 00 00 	nop 
    e61c:	01 00 00 00 	nop 
    e620:	01 00 00 00 	nop 
    e624:	01 00 00 00 	nop 
    e628:	01 00 00 00 	nop 
    e62c:	01 00 00 00 	nop 
    e630:	01 00 00 00 	nop 
    e634:	01 00 00 00 	nop 
    e638:	01 00 00 00 	nop 
    e63c:	01 00 00 00 	nop 
    e640:	01 00 00 00 	nop 
    e644:	01 00 00 00 	nop 
    e648:	01 00 00 00 	nop 
    e64c:	01 00 00 00 	nop 
    e650:	01 00 00 00 	nop 
    e654:	01 00 00 00 	nop 
    e658:	01 00 00 00 	nop 
    e65c:	01 00 00 00 	nop 
    e660:	01 00 00 00 	nop 
    e664:	01 00 00 00 	nop 
    e668:	01 00 00 00 	nop 
    e66c:	01 00 00 00 	nop 
    e670:	01 00 00 00 	nop 
    e674:	01 00 00 00 	nop 
    e678:	01 00 00 00 	nop 
    e67c:	01 00 00 00 	nop 
    e680:	01 00 00 00 	nop 
    e684:	01 00 00 00 	nop 
    e688:	01 00 00 00 	nop 
    e68c:	01 00 00 00 	nop 
    e690:	01 00 00 00 	nop 
    e694:	01 00 00 00 	nop 
    e698:	01 00 00 00 	nop 
    e69c:	01 00 00 00 	nop 
    e6a0:	01 00 00 00 	nop 
    e6a4:	01 00 00 00 	nop 
    e6a8:	01 00 00 00 	nop 
    e6ac:	01 00 00 00 	nop 
    e6b0:	01 00 00 00 	nop 
    e6b4:	01 00 00 00 	nop 
    e6b8:	01 00 00 00 	nop 
    e6bc:	01 00 00 00 	nop 
    e6c0:	01 00 00 00 	nop 
    e6c4:	01 00 00 00 	nop 
    e6c8:	01 00 00 00 	nop 
    e6cc:	01 00 00 00 	nop 
    e6d0:	01 00 00 00 	nop 
    e6d4:	01 00 00 00 	nop 
    e6d8:	01 00 00 00 	nop 
    e6dc:	01 00 00 00 	nop 
    e6e0:	01 00 00 00 	nop 
    e6e4:	01 00 00 00 	nop 
    e6e8:	01 00 00 00 	nop 
    e6ec:	01 00 00 00 	nop 
    e6f0:	01 00 00 00 	nop 
    e6f4:	01 00 00 00 	nop 
    e6f8:	01 00 00 00 	nop 
    e6fc:	01 00 00 00 	nop 
    e700:	01 00 00 00 	nop 
    e704:	01 00 00 00 	nop 
    e708:	01 00 00 00 	nop 
    e70c:	01 00 00 00 	nop 
    e710:	01 00 00 00 	nop 
    e714:	01 00 00 00 	nop 
    e718:	01 00 00 00 	nop 
    e71c:	01 00 00 00 	nop 
    e720:	01 00 00 00 	nop 
    e724:	01 00 00 00 	nop 
    e728:	01 00 00 00 	nop 
    e72c:	01 00 00 00 	nop 
    e730:	01 00 00 00 	nop 
    e734:	01 00 00 00 	nop 
    e738:	01 00 00 00 	nop 
    e73c:	01 00 00 00 	nop 
    e740:	01 00 00 00 	nop 
    e744:	01 00 00 00 	nop 
    e748:	01 00 00 00 	nop 
    e74c:	01 00 00 00 	nop 
    e750:	01 00 00 00 	nop 
    e754:	01 00 00 00 	nop 
    e758:	01 00 00 00 	nop 
    e75c:	01 00 00 00 	nop 
    e760:	01 00 00 00 	nop 
    e764:	01 00 00 00 	nop 
    e768:	01 00 00 00 	nop 
    e76c:	01 00 00 00 	nop 
    e770:	01 00 00 00 	nop 
    e774:	01 00 00 00 	nop 
    e778:	01 00 00 00 	nop 
    e77c:	01 00 00 00 	nop 
    e780:	01 00 00 00 	nop 
    e784:	01 00 00 00 	nop 
    e788:	01 00 00 00 	nop 
    e78c:	01 00 00 00 	nop 
    e790:	01 00 00 00 	nop 
    e794:	01 00 00 00 	nop 
    e798:	01 00 00 00 	nop 
    e79c:	01 00 00 00 	nop 
    e7a0:	01 00 00 00 	nop 
    e7a4:	01 00 00 00 	nop 
    e7a8:	01 00 00 00 	nop 
    e7ac:	01 00 00 00 	nop 
    e7b0:	01 00 00 00 	nop 
    e7b4:	01 00 00 00 	nop 
    e7b8:	01 00 00 00 	nop 
    e7bc:	01 00 00 00 	nop 
    e7c0:	01 00 00 00 	nop 
    e7c4:	01 00 00 00 	nop 
    e7c8:	01 00 00 00 	nop 
    e7cc:	01 00 00 00 	nop 
    e7d0:	01 00 00 00 	nop 
    e7d4:	01 00 00 00 	nop 
    e7d8:	01 00 00 00 	nop 
    e7dc:	01 00 00 00 	nop 
    e7e0:	01 00 00 00 	nop 
    e7e4:	01 00 00 00 	nop 
    e7e8:	01 00 00 00 	nop 
    e7ec:	01 00 00 00 	nop 
    e7f0:	01 00 00 00 	nop 
    e7f4:	01 00 00 00 	nop 
    e7f8:	01 00 00 00 	nop 
    e7fc:	01 00 00 00 	nop 
    e800:	01 00 00 00 	nop 
    e804:	01 00 00 00 	nop 
    e808:	01 00 00 00 	nop 
    e80c:	01 00 00 00 	nop 
    e810:	01 00 00 00 	nop 
    e814:	01 00 00 00 	nop 
    e818:	01 00 00 00 	nop 
    e81c:	01 00 00 00 	nop 
    e820:	01 00 00 00 	nop 
    e824:	01 00 00 00 	nop 
    e828:	01 00 00 00 	nop 
    e82c:	01 00 00 00 	nop 
    e830:	01 00 00 00 	nop 
    e834:	01 00 00 00 	nop 
    e838:	01 00 00 00 	nop 
    e83c:	01 00 00 00 	nop 
    e840:	01 00 00 00 	nop 
    e844:	01 00 00 00 	nop 
    e848:	01 00 00 00 	nop 
    e84c:	01 00 00 00 	nop 
    e850:	01 00 00 00 	nop 
    e854:	01 00 00 00 	nop 
    e858:	01 00 00 00 	nop 
    e85c:	01 00 00 00 	nop 
    e860:	01 00 00 00 	nop 
    e864:	01 00 00 00 	nop 
    e868:	01 00 00 00 	nop 
    e86c:	01 00 00 00 	nop 
    e870:	01 00 00 00 	nop 
    e874:	01 00 00 00 	nop 
    e878:	01 00 00 00 	nop 
    e87c:	01 00 00 00 	nop 
    e880:	01 00 00 00 	nop 
    e884:	01 00 00 00 	nop 
    e888:	01 00 00 00 	nop 
    e88c:	01 00 00 00 	nop 
    e890:	01 00 00 00 	nop 
    e894:	01 00 00 00 	nop 
    e898:	01 00 00 00 	nop 
    e89c:	01 00 00 00 	nop 
    e8a0:	01 00 00 00 	nop 
    e8a4:	01 00 00 00 	nop 
    e8a8:	01 00 00 00 	nop 
    e8ac:	01 00 00 00 	nop 
    e8b0:	01 00 00 00 	nop 
    e8b4:	01 00 00 00 	nop 
    e8b8:	01 00 00 00 	nop 
    e8bc:	01 00 00 00 	nop 
    e8c0:	01 00 00 00 	nop 
    e8c4:	01 00 00 00 	nop 
    e8c8:	01 00 00 00 	nop 
    e8cc:	01 00 00 00 	nop 
    e8d0:	01 00 00 00 	nop 
    e8d4:	01 00 00 00 	nop 
    e8d8:	01 00 00 00 	nop 
    e8dc:	01 00 00 00 	nop 
    e8e0:	01 00 00 00 	nop 
    e8e4:	01 00 00 00 	nop 
    e8e8:	01 00 00 00 	nop 
    e8ec:	01 00 00 00 	nop 
    e8f0:	01 00 00 00 	nop 
    e8f4:	01 00 00 00 	nop 
    e8f8:	01 00 00 00 	nop 
    e8fc:	01 00 00 00 	nop 
    e900:	01 00 00 00 	nop 
    e904:	01 00 00 00 	nop 
    e908:	01 00 00 00 	nop 
    e90c:	01 00 00 00 	nop 
    e910:	01 00 00 00 	nop 
    e914:	01 00 00 00 	nop 
    e918:	01 00 00 00 	nop 
    e91c:	01 00 00 00 	nop 
    e920:	01 00 00 00 	nop 
    e924:	01 00 00 00 	nop 
    e928:	01 00 00 00 	nop 
    e92c:	01 00 00 00 	nop 
    e930:	01 00 00 00 	nop 
    e934:	01 00 00 00 	nop 
    e938:	01 00 00 00 	nop 
    e93c:	01 00 00 00 	nop 
    e940:	01 00 00 00 	nop 
    e944:	01 00 00 00 	nop 
    e948:	01 00 00 00 	nop 
    e94c:	01 00 00 00 	nop 
    e950:	01 00 00 00 	nop 
    e954:	01 00 00 00 	nop 
    e958:	01 00 00 00 	nop 
    e95c:	01 00 00 00 	nop 
    e960:	01 00 00 00 	nop 
    e964:	01 00 00 00 	nop 
    e968:	01 00 00 00 	nop 
    e96c:	01 00 00 00 	nop 
    e970:	01 00 00 00 	nop 
    e974:	01 00 00 00 	nop 
    e978:	01 00 00 00 	nop 
    e97c:	01 00 00 00 	nop 
    e980:	01 00 00 00 	nop 
    e984:	01 00 00 00 	nop 
    e988:	01 00 00 00 	nop 
    e98c:	01 00 00 00 	nop 
    e990:	01 00 00 00 	nop 
    e994:	01 00 00 00 	nop 
    e998:	01 00 00 00 	nop 
    e99c:	01 00 00 00 	nop 
    e9a0:	01 00 00 00 	nop 
    e9a4:	01 00 00 00 	nop 
    e9a8:	01 00 00 00 	nop 
    e9ac:	01 00 00 00 	nop 
    e9b0:	01 00 00 00 	nop 
    e9b4:	01 00 00 00 	nop 
    e9b8:	01 00 00 00 	nop 
    e9bc:	01 00 00 00 	nop 
    e9c0:	01 00 00 00 	nop 
    e9c4:	01 00 00 00 	nop 
    e9c8:	01 00 00 00 	nop 
    e9cc:	01 00 00 00 	nop 
    e9d0:	01 00 00 00 	nop 
    e9d4:	01 00 00 00 	nop 
    e9d8:	01 00 00 00 	nop 
    e9dc:	01 00 00 00 	nop 
    e9e0:	01 00 00 00 	nop 
    e9e4:	01 00 00 00 	nop 
    e9e8:	01 00 00 00 	nop 
    e9ec:	01 00 00 00 	nop 
    e9f0:	01 00 00 00 	nop 
    e9f4:	01 00 00 00 	nop 
    e9f8:	01 00 00 00 	nop 
    e9fc:	01 00 00 00 	nop 
    ea00:	01 00 00 00 	nop 
    ea04:	01 00 00 00 	nop 
    ea08:	01 00 00 00 	nop 
    ea0c:	01 00 00 00 	nop 
    ea10:	01 00 00 00 	nop 
    ea14:	01 00 00 00 	nop 
    ea18:	01 00 00 00 	nop 
    ea1c:	01 00 00 00 	nop 
    ea20:	01 00 00 00 	nop 
    ea24:	01 00 00 00 	nop 
    ea28:	01 00 00 00 	nop 
    ea2c:	01 00 00 00 	nop 
    ea30:	01 00 00 00 	nop 
    ea34:	01 00 00 00 	nop 
    ea38:	01 00 00 00 	nop 
    ea3c:	01 00 00 00 	nop 
    ea40:	01 00 00 00 	nop 
    ea44:	01 00 00 00 	nop 
    ea48:	01 00 00 00 	nop 
    ea4c:	01 00 00 00 	nop 
    ea50:	01 00 00 00 	nop 
    ea54:	01 00 00 00 	nop 
    ea58:	01 00 00 00 	nop 
    ea5c:	01 00 00 00 	nop 
    ea60:	01 00 00 00 	nop 
    ea64:	01 00 00 00 	nop 
    ea68:	01 00 00 00 	nop 
    ea6c:	01 00 00 00 	nop 
    ea70:	01 00 00 00 	nop 
    ea74:	01 00 00 00 	nop 
    ea78:	01 00 00 00 	nop 
    ea7c:	01 00 00 00 	nop 
    ea80:	01 00 00 00 	nop 
    ea84:	01 00 00 00 	nop 
    ea88:	01 00 00 00 	nop 
    ea8c:	01 00 00 00 	nop 
    ea90:	01 00 00 00 	nop 
    ea94:	01 00 00 00 	nop 
    ea98:	01 00 00 00 	nop 
    ea9c:	01 00 00 00 	nop 
    eaa0:	01 00 00 00 	nop 
    eaa4:	01 00 00 00 	nop 
    eaa8:	01 00 00 00 	nop 
    eaac:	01 00 00 00 	nop 
    eab0:	01 00 00 00 	nop 
    eab4:	01 00 00 00 	nop 
    eab8:	01 00 00 00 	nop 
    eabc:	01 00 00 00 	nop 
    eac0:	01 00 00 00 	nop 
    eac4:	01 00 00 00 	nop 
    eac8:	01 00 00 00 	nop 
    eacc:	01 00 00 00 	nop 
    ead0:	01 00 00 00 	nop 
    ead4:	01 00 00 00 	nop 
    ead8:	01 00 00 00 	nop 
    eadc:	01 00 00 00 	nop 
    eae0:	01 00 00 00 	nop 
    eae4:	01 00 00 00 	nop 
    eae8:	01 00 00 00 	nop 
    eaec:	01 00 00 00 	nop 
    eaf0:	01 00 00 00 	nop 
    eaf4:	01 00 00 00 	nop 
    eaf8:	01 00 00 00 	nop 
    eafc:	01 00 00 00 	nop 
    eb00:	01 00 00 00 	nop 
    eb04:	01 00 00 00 	nop 
    eb08:	01 00 00 00 	nop 
    eb0c:	01 00 00 00 	nop 
    eb10:	01 00 00 00 	nop 
    eb14:	01 00 00 00 	nop 
    eb18:	01 00 00 00 	nop 
    eb1c:	01 00 00 00 	nop 
    eb20:	01 00 00 00 	nop 
    eb24:	01 00 00 00 	nop 
    eb28:	01 00 00 00 	nop 
    eb2c:	01 00 00 00 	nop 
    eb30:	01 00 00 00 	nop 
    eb34:	01 00 00 00 	nop 
    eb38:	01 00 00 00 	nop 
    eb3c:	01 00 00 00 	nop 
    eb40:	01 00 00 00 	nop 
    eb44:	01 00 00 00 	nop 
    eb48:	01 00 00 00 	nop 
    eb4c:	01 00 00 00 	nop 
    eb50:	01 00 00 00 	nop 
    eb54:	01 00 00 00 	nop 
    eb58:	01 00 00 00 	nop 
    eb5c:	01 00 00 00 	nop 
    eb60:	01 00 00 00 	nop 
    eb64:	01 00 00 00 	nop 
    eb68:	01 00 00 00 	nop 
    eb6c:	01 00 00 00 	nop 
    eb70:	01 00 00 00 	nop 
    eb74:	01 00 00 00 	nop 
    eb78:	01 00 00 00 	nop 
    eb7c:	01 00 00 00 	nop 
    eb80:	01 00 00 00 	nop 
    eb84:	01 00 00 00 	nop 
    eb88:	01 00 00 00 	nop 
    eb8c:	01 00 00 00 	nop 
    eb90:	01 00 00 00 	nop 
    eb94:	01 00 00 00 	nop 
    eb98:	01 00 00 00 	nop 
    eb9c:	01 00 00 00 	nop 
    eba0:	01 00 00 00 	nop 
    eba4:	01 00 00 00 	nop 
    eba8:	01 00 00 00 	nop 
    ebac:	01 00 00 00 	nop 
    ebb0:	01 00 00 00 	nop 
    ebb4:	01 00 00 00 	nop 
    ebb8:	01 00 00 00 	nop 
    ebbc:	01 00 00 00 	nop 
    ebc0:	01 00 00 00 	nop 
    ebc4:	01 00 00 00 	nop 
    ebc8:	01 00 00 00 	nop 
    ebcc:	01 00 00 00 	nop 
    ebd0:	01 00 00 00 	nop 
    ebd4:	01 00 00 00 	nop 
    ebd8:	01 00 00 00 	nop 
    ebdc:	01 00 00 00 	nop 
    ebe0:	01 00 00 00 	nop 
    ebe4:	01 00 00 00 	nop 
    ebe8:	01 00 00 00 	nop 
    ebec:	01 00 00 00 	nop 
    ebf0:	01 00 00 00 	nop 
    ebf4:	01 00 00 00 	nop 
    ebf8:	01 00 00 00 	nop 
    ebfc:	01 00 00 00 	nop 
    ec00:	01 00 00 00 	nop 
    ec04:	01 00 00 00 	nop 
    ec08:	01 00 00 00 	nop 
    ec0c:	01 00 00 00 	nop 
    ec10:	01 00 00 00 	nop 
    ec14:	01 00 00 00 	nop 
    ec18:	01 00 00 00 	nop 
    ec1c:	01 00 00 00 	nop 
    ec20:	01 00 00 00 	nop 
    ec24:	01 00 00 00 	nop 
    ec28:	01 00 00 00 	nop 
    ec2c:	01 00 00 00 	nop 
    ec30:	01 00 00 00 	nop 
